ARM GAS  /tmp/cclDsldr.s 			page 1


   1              		.cpu cortex-m4
   2              		.eabi_attribute 27, 1
   3              		.eabi_attribute 28, 1
   4              		.eabi_attribute 20, 1
   5              		.eabi_attribute 21, 1
   6              		.eabi_attribute 23, 3
   7              		.eabi_attribute 24, 1
   8              		.eabi_attribute 25, 1
   9              		.eabi_attribute 26, 1
  10              		.eabi_attribute 30, 1
  11              		.eabi_attribute 34, 1
  12              		.eabi_attribute 18, 4
  13              		.file	"deca_device.c"
  14              		.text
  15              	.Ltext0:
  16              		.cfi_sections	.debug_frame
  17              		.section	.text._dwt_crc8init,"ax",%progbits
  18              		.align	1
  19              		.arch armv7e-m
  20              		.syntax unified
  21              		.thumb
  22              		.thumb_func
  23              		.fpu fpv4-sp-d16
  25              	_dwt_crc8init:
  26              	.LFB15:
  27              		.file 1 "Core/Src/deca_device.c"
   1:Core/Src/deca_device.c **** #include <assert.h>
   2:Core/Src/deca_device.c **** #include <stdlib.h>
   3:Core/Src/deca_device.c **** #include <stdint.h>
   4:Core/Src/deca_device.c **** 
   5:Core/Src/deca_device.c **** #include "deca_types.h"
   6:Core/Src/deca_device.c **** #include "deca_regs.h"
   7:Core/Src/deca_device.c **** #include "deca_device_api.h"
   8:Core/Src/deca_device.c **** #include "deca_version.h"
   9:Core/Src/deca_device.c **** 
  10:Core/Src/deca_device.c **** // ------------------------------------------------------------------------------------------------
  11:Core/Src/deca_device.c **** // Module Macro definitions and enumerations
  12:Core/Src/deca_device.c **** //
  13:Core/Src/deca_device.c **** 
  14:Core/Src/deca_device.c **** //#define DWT_API_ERROR_CHECK  /* API checks config input parameters */
  15:Core/Src/deca_device.c **** 
  16:Core/Src/deca_device.c **** /* STS Minimum Threshold (STS_MNTH) needs to be adjusted with changing STS length.
  17:Core/Src/deca_device.c **** To adjust the STS_MNTH following formula can be used: STS_MNTH = SQRT(X/Y)*default_STS_MNTH
  18:Core/Src/deca_device.c **** default_STS_MNTH is 0x10
  19:Core/Src/deca_device.c **** X is the length of the STS in units of 8 (i.e. 8 for 64 length, 16 for 128 length etc.)
  20:Core/Src/deca_device.c **** Y is either 8 or 16, 8 when no PDOA or PDOA mode 1 and 16 for PDOA mode 3
  21:Core/Src/deca_device.c **** 
  22:Core/Src/deca_device.c **** The API does not use the formula and the STS_MNTH value is derived from approximation formula as gi
  23:Core/Src/deca_device.c **** function. The API here supports STS lengths as listed in: dwt_sts_lengths_e enum, which are: 32, 64
  24:Core/Src/deca_device.c **** The enum value is used as the index into sts_length_factors array. The array has values which are g
  25:Core/Src/deca_device.c **** val = SQRT(stsLength/16)*2048
  26:Core/Src/deca_device.c **** */
  27:Core/Src/deca_device.c **** const uint16_t sts_length_factors[STS_LEN_SUPPORTED]=
  28:Core/Src/deca_device.c **** {
  29:Core/Src/deca_device.c ****     1024,1448,2048,2896,4096,5793,8192
  30:Core/Src/deca_device.c **** };
  31:Core/Src/deca_device.c **** 
ARM GAS  /tmp/cclDsldr.s 			page 2


  32:Core/Src/deca_device.c **** static uint16_t get_sts_mnth(uint16_t sts, uint8_t default_threshold, uint8_t shift_val);
  33:Core/Src/deca_device.c **** 
  34:Core/Src/deca_device.c **** //DW-IC SPI CRC-8 polynomial
  35:Core/Src/deca_device.c **** #define POLYNOMIAL  0x07    /* x^8 + x^2 + x^1 + x^0 */
  36:Core/Src/deca_device.c **** #define TOPBIT      (1 << (8 - 1))
  37:Core/Src/deca_device.c **** 
  38:Core/Src/deca_device.c **** // OTP addresses definitions
  39:Core/Src/deca_device.c **** #define LDOTUNELO_ADDRESS (0x04)
  40:Core/Src/deca_device.c **** #define LDOTUNEHI_ADDRESS (0x05)
  41:Core/Src/deca_device.c **** #define PARTID_ADDRESS  (0x06)
  42:Core/Src/deca_device.c **** #define LOTID_ADDRESS   (0x07)
  43:Core/Src/deca_device.c **** #define VBAT_ADDRESS    (0x08)
  44:Core/Src/deca_device.c **** #define VTEMP_ADDRESS   (0x09)
  45:Core/Src/deca_device.c **** #define XTRIM_ADDRESS   (0x1E)
  46:Core/Src/deca_device.c **** #define OTPREV_ADDRESS  (0x1F)
  47:Core/Src/deca_device.c **** #define BIAS_TUNE_ADDRESS (0xA)
  48:Core/Src/deca_device.c **** #define DGC_TUNE_ADDRESS (0x20)
  49:Core/Src/deca_device.c **** 
  50:Core/Src/deca_device.c **** // dwt_readcarrierintegrator defines
  51:Core/Src/deca_device.c **** #define B20_SIGN_EXTEND_TEST (0x00100000UL)
  52:Core/Src/deca_device.c **** #define B20_SIGN_EXTEND_MASK (0xFFF00000UL)
  53:Core/Src/deca_device.c **** #define DRX_CARRIER_INT_LEN  (3)
  54:Core/Src/deca_device.c **** 
  55:Core/Src/deca_device.c **** #define CIA_MANUALLOWERBOUND_TH_64  (0x10) //cia lower bound threshold values for 64 MHz PRF
  56:Core/Src/deca_device.c **** #define STSQUAL_THRESH_64 (0.90f)
  57:Core/Src/deca_device.c ****  //STS quality threshold values for 64 MHz PRF
  58:Core/Src/deca_device.c ****  //when using 64 MHz PRF the stsCpQual should be > 90 % of STS length
  59:Core/Src/deca_device.c **** 
  60:Core/Src/deca_device.c **** // dwt_readclockoffset defines
  61:Core/Src/deca_device.c **** #define B11_SIGN_EXTEND_TEST (0x1000UL)
  62:Core/Src/deca_device.c **** #define B11_SIGN_EXTEND_MASK (0xE000UL)
  63:Core/Src/deca_device.c **** 
  64:Core/Src/deca_device.c **** // dwt_readpdoa defines
  65:Core/Src/deca_device.c **** #define B12_SIGN_EXTEND_TEST (0x2000UL)
  66:Core/Src/deca_device.c **** #define B12_SIGN_EXTEND_MASK (0xC000UL)
  67:Core/Src/deca_device.c **** 
  68:Core/Src/deca_device.c **** // ------------------------------------------------------------------------------------------------
  69:Core/Src/deca_device.c **** // Macros and Enumerations for SPI & CLock blocks
  70:Core/Src/deca_device.c **** //
  71:Core/Src/deca_device.c **** #define DW3000_SPI_FAC      (0<<6 | 1<<0)
  72:Core/Src/deca_device.c **** #define DW3000_SPI_FARW     (0<<6 | 0<<0)
  73:Core/Src/deca_device.c **** #define DW3000_SPI_EAMRW    (1<<6)
  74:Core/Src/deca_device.c **** 
  75:Core/Src/deca_device.c **** // Defines for enable_clocks function
  76:Core/Src/deca_device.c **** #define FORCE_CLK_SYS_TX        (1)
  77:Core/Src/deca_device.c **** #define FORCE_CLK_AUTO          (5)
  78:Core/Src/deca_device.c **** //SYSCLK
  79:Core/Src/deca_device.c **** #define FORCE_SYSCLK_PLL        (2)
  80:Core/Src/deca_device.c **** #define FORCE_SYSCLK_FOSCDIV4   (1)
  81:Core/Src/deca_device.c **** #define FORCE_SYSCLK_FOSC       (3)
  82:Core/Src/deca_device.c **** //RX and TX CLK
  83:Core/Src/deca_device.c **** #define FORCE_CLK_PLL           (2)
  84:Core/Src/deca_device.c **** 
  85:Core/Src/deca_device.c **** #define SEL_CHANNEL5            (5)
  86:Core/Src/deca_device.c **** #define SEL_CHANNEL9            (9)
  87:Core/Src/deca_device.c **** 
  88:Core/Src/deca_device.c **** // ------------------------------------------------------------------------------------------------
ARM GAS  /tmp/cclDsldr.s 			page 3


  89:Core/Src/deca_device.c **** // Internal functions prototypes for controlling and configuring the device
  90:Core/Src/deca_device.c **** //
  91:Core/Src/deca_device.c **** static void dwt_force_clocks(int clocks);
  92:Core/Src/deca_device.c **** static uint32_t _dwt_otpread(uint16_t address);                     // Read non-volatile memory
  93:Core/Src/deca_device.c **** static void _dwt_otpprogword32(uint32_t data, uint16_t address);  // Program the non-volatile memor
  94:Core/Src/deca_device.c **** 
  95:Core/Src/deca_device.c **** // ------------------------------------------------------------------------------------------------
  96:Core/Src/deca_device.c **** // Data for DW3000 Decawave Transceiver control
  97:Core/Src/deca_device.c **** //
  98:Core/Src/deca_device.c **** // Structure to hold the device data
  99:Core/Src/deca_device.c **** typedef struct
 100:Core/Src/deca_device.c **** {
 101:Core/Src/deca_device.c ****     uint32_t      partID ;            // IC Part ID - read during initialisation
 102:Core/Src/deca_device.c ****     uint32_t      lotID ;             // IC Lot ID - read during initialisation
 103:Core/Src/deca_device.c ****     uint8_t       bias_tune;          // bias tune code
 104:Core/Src/deca_device.c ****     uint8_t       dgc_otp_set;        // Flag to check if DGC values are programmed in OTP
 105:Core/Src/deca_device.c ****     uint8_t       vBatP;              // IC V bat read during production and stored in OTP (Vmeas @
 106:Core/Src/deca_device.c ****     uint8_t       tempP;              // IC temp read during production and stored in OTP (Tmeas @ 
 107:Core/Src/deca_device.c ****     uint8_t       longFrames ;        // Flag in non-standard long frame mode
 108:Core/Src/deca_device.c ****     uint8_t       otprev ;            // OTP revision number (read during initialisation)
 109:Core/Src/deca_device.c ****     uint8_t       init_xtrim;         // initial XTAL trim value read from OTP (or defaulted to mid
 110:Core/Src/deca_device.c ****     uint8_t       dblbuffon;          // Double RX buffer mode and DB status flag
 111:Core/Src/deca_device.c ****     uint16_t      sleep_mode;         // Used for automatic reloading of LDO tune and microcode at 
 112:Core/Src/deca_device.c ****     int16_t       ststhreshold;       // Threshold for deciding if received STS is good or bad
 113:Core/Src/deca_device.c ****     dwt_spi_crc_mode_e   spicrc;      // Use SPI CRC when this flag is true
 114:Core/Src/deca_device.c ****     uint8_t       stsconfig;          // STS configuration mode
 115:Core/Src/deca_device.c ****     uint8_t       cia_diagnostic;     // CIA dignostic logging level
 116:Core/Src/deca_device.c ****     dwt_cb_data_t cbData;             // Callback data structure
 117:Core/Src/deca_device.c ****     dwt_spierrcb_t cbSPIRDErr;        // Callback for SPI read error events
 118:Core/Src/deca_device.c ****     dwt_cb_t    cbTxDone;             // Callback for TX confirmation event
 119:Core/Src/deca_device.c ****     dwt_cb_t    cbRxOk;               // Callback for RX good frame event
 120:Core/Src/deca_device.c ****     dwt_cb_t    cbRxTo;               // Callback for RX timeout events
 121:Core/Src/deca_device.c ****     dwt_cb_t    cbRxErr;              // Callback for RX error events
 122:Core/Src/deca_device.c ****     dwt_cb_t    cbSPIErr;             // Callback for SPI error events
 123:Core/Src/deca_device.c ****     dwt_cb_t    cbSPIRdy;             // Callback for SPI ready events
 124:Core/Src/deca_device.c **** } dwt_local_data_t ;
 125:Core/Src/deca_device.c **** 
 126:Core/Src/deca_device.c **** 
 127:Core/Src/deca_device.c **** // ------------------------------------------------------------------------------------------------
 128:Core/Src/deca_device.c **** // Local variables
 129:Core/Src/deca_device.c **** //
 130:Core/Src/deca_device.c **** static dwt_local_data_t   DW3000local[DWT_NUM_DW_DEV] ; // Local device data, can be an array to su
 131:Core/Src/deca_device.c **** static dwt_local_data_t *pdw3000local = &DW3000local[0];   // Local data structure pointer
 132:Core/Src/deca_device.c **** static uint8_t crcTable[256];
 133:Core/Src/deca_device.c **** 
 134:Core/Src/deca_device.c **** /*! -----------------------------------------------------------------------------------------------
 135:Core/Src/deca_device.c ****  * @brief This function returns the version of the API as defined by DW3000_DRIVER_VERSION
 136:Core/Src/deca_device.c ****  *
 137:Core/Src/deca_device.c ****  * input parameters
 138:Core/Src/deca_device.c ****  *
 139:Core/Src/deca_device.c ****  * output parameters
 140:Core/Src/deca_device.c ****  *
 141:Core/Src/deca_device.c ****  * returns version (DW3000_DRIVER_VERSION)
 142:Core/Src/deca_device.c ****  */
 143:Core/Src/deca_device.c **** int32_t dwt_apiversion(void)
 144:Core/Src/deca_device.c **** {
 145:Core/Src/deca_device.c ****     return DW3000_DRIVER_VERSION;
ARM GAS  /tmp/cclDsldr.s 			page 4


 146:Core/Src/deca_device.c **** }
 147:Core/Src/deca_device.c **** 
 148:Core/Src/deca_device.c **** /*! -----------------------------------------------------------------------------------------------
 149:Core/Src/deca_device.c ****  * @brief This function sets the local data structure pointer to point to the element in the local 
 150:Core/Src/deca_device.c ****  *
 151:Core/Src/deca_device.c ****  * input parameters
 152:Core/Src/deca_device.c ****  * @param index    - selects the array element to point to. Must be within the array bounds, i.e. <
 153:Core/Src/deca_device.c ****  *
 154:Core/Src/deca_device.c ****  * output parameters
 155:Core/Src/deca_device.c ****  *
 156:Core/Src/deca_device.c ****  * returns DWT_SUCCESS for success, or DWT_ERROR for error
 157:Core/Src/deca_device.c ****  */
 158:Core/Src/deca_device.c **** int dwt_setlocaldataptr(unsigned int index)
 159:Core/Src/deca_device.c **** {
 160:Core/Src/deca_device.c ****     // Check the index is within the array bounds
 161:Core/Src/deca_device.c ****     if (DWT_NUM_DW_DEV <= index) // return error if index outside the array bounds
 162:Core/Src/deca_device.c ****     {
 163:Core/Src/deca_device.c ****         return DWT_ERROR ;
 164:Core/Src/deca_device.c ****     }
 165:Core/Src/deca_device.c **** 
 166:Core/Src/deca_device.c ****     pdw3000local = &DW3000local[index];
 167:Core/Src/deca_device.c **** 
 168:Core/Src/deca_device.c ****     return DWT_SUCCESS ;
 169:Core/Src/deca_device.c **** }
 170:Core/Src/deca_device.c **** 
 171:Core/Src/deca_device.c **** /*! -----------------------------------------------------------------------------------------------
 172:Core/Src/deca_device.c **** * @brief  this function is used to read/write to the DW3000 device registers
 173:Core/Src/deca_device.c **** *
 174:Core/Src/deca_device.c **** * input parameters:
 175:Core/Src/deca_device.c **** * @param recordNumber  - ID of register file or buffer being accessed
 176:Core/Src/deca_device.c **** * @param index         - byte index into register file or buffer being accessed
 177:Core/Src/deca_device.c **** * @param length        - number of bytes being written
 178:Core/Src/deca_device.c **** * @param buffer        - pointer to buffer containing the 'length' bytes to be written
 179:Core/Src/deca_device.c **** * @param rw            - DW3000_SPI_WR_BIT/DW3000_SPI_RD_BIT
 180:Core/Src/deca_device.c **** *
 181:Core/Src/deca_device.c **** * no return value
 182:Core/Src/deca_device.c **** */
 183:Core/Src/deca_device.c **** static
 184:Core/Src/deca_device.c **** void dwt_xfer3000
 185:Core/Src/deca_device.c **** (
 186:Core/Src/deca_device.c ****     const uint32_t    regFileID,  //0x0, 0x04-0x7F ; 0x10000, 0x10004, 0x10008-0x1007F; 0x20000 etc
 187:Core/Src/deca_device.c ****     const uint16_t    indx,       //sub-index, calculated from regFileID 0..0x7F,
 188:Core/Src/deca_device.c ****     const uint16_t    length,
 189:Core/Src/deca_device.c ****     uint8_t           *buffer,
 190:Core/Src/deca_device.c ****     const spi_modes_e mode
 191:Core/Src/deca_device.c **** )
 192:Core/Src/deca_device.c **** {
 193:Core/Src/deca_device.c ****     uint8_t  header[2];           // Buffer to compose header in
 194:Core/Src/deca_device.c ****     uint16_t cnt = 0;             // Counter for length of a header
 195:Core/Src/deca_device.c **** 
 196:Core/Src/deca_device.c ****     uint16_t reg_file     = 0x1F & ((regFileID + indx) >> 16);
 197:Core/Src/deca_device.c ****     uint16_t reg_offset   = 0x7F &  (regFileID + indx);
 198:Core/Src/deca_device.c **** 
 199:Core/Src/deca_device.c ****     assert(reg_file     <= 0x1F);
 200:Core/Src/deca_device.c ****     assert(reg_offset   <= 0x7F);
 201:Core/Src/deca_device.c ****     assert(length       < 0x3100);
 202:Core/Src/deca_device.c ****     assert(mode == DW3000_SPI_WR_BIT ||\
ARM GAS  /tmp/cclDsldr.s 			page 5


 203:Core/Src/deca_device.c ****            mode == DW3000_SPI_RD_BIT ||\
 204:Core/Src/deca_device.c ****            mode == DW3000_SPI_AND_OR_8 ||\
 205:Core/Src/deca_device.c ****            mode == DW3000_SPI_AND_OR_16 ||\
 206:Core/Src/deca_device.c ****            mode == DW3000_SPI_AND_OR_32);
 207:Core/Src/deca_device.c **** 
 208:Core/Src/deca_device.c ****     // Write message header selecting WRITE operation and addresses as appropriate
 209:Core/Src/deca_device.c ****     uint16_t  addr;
 210:Core/Src/deca_device.c ****     addr = (reg_file << 9) | (reg_offset << 2);
 211:Core/Src/deca_device.c **** 
 212:Core/Src/deca_device.c ****     header[0] = (uint8_t)((mode | addr) >> 8);//  & 0xFF; //bit7 + addr[4:0] + sub_addr[6:6]
 213:Core/Src/deca_device.c ****     header[1] = (uint8_t)(addr | (mode & 0x03));// & 0xFF; //EAM: subaddr[5:0]+ R/W/AND_OR
 214:Core/Src/deca_device.c **** 
 215:Core/Src/deca_device.c ****     if (/*reg_offset == 0 && */length == 0)
 216:Core/Src/deca_device.c ****     {   /* Fast Access Commands (FAC)
 217:Core/Src/deca_device.c ****          * only write operation is possible for this mode
 218:Core/Src/deca_device.c ****          * bit_7=one is W operation, bit_6=zero: FastAccess command, bit_[5..1] addr, bits_0=one: M
 219:Core/Src/deca_device.c ****          */
 220:Core/Src/deca_device.c ****         assert(mode == DW3000_SPI_WR_BIT);
 221:Core/Src/deca_device.c **** 
 222:Core/Src/deca_device.c ****         header[0] = (uint8_t)((DW3000_SPI_WR_BIT>>8) | (regFileID<<1) | DW3000_SPI_FAC);
 223:Core/Src/deca_device.c ****         cnt = 1;
 224:Core/Src/deca_device.c ****     }
 225:Core/Src/deca_device.c ****     else if (reg_offset == 0 /*&& length > 0*/ && (mode == DW3000_SPI_WR_BIT || mode == DW3000_SPI_
 226:Core/Src/deca_device.c ****     {   /* Fast Access Commands with Read/Write support (FACRW)
 227:Core/Src/deca_device.c ****          * bit_7 is R/W operation, bit_6=zero: FastAccess command, bit_[5..1] addr, bits_0=zero: MO
 228:Core/Src/deca_device.c ****          */
 229:Core/Src/deca_device.c ****         header[0] |= DW3000_SPI_FARW;
 230:Core/Src/deca_device.c ****         cnt = 1;
 231:Core/Src/deca_device.c ****     }
 232:Core/Src/deca_device.c ****     else
 233:Core/Src/deca_device.c ****     {   /* Extended Address Mode with Read/Write support (EAMRW)
 234:Core/Src/deca_device.c ****          * b[0] = bit_7 is R/W operation, bit_6 one = ExtendedAddressMode;
 235:Core/Src/deca_device.c ****          * b[1] = addr<<2 | (mode&0x3)
 236:Core/Src/deca_device.c ****          */
 237:Core/Src/deca_device.c ****         header[0] |= DW3000_SPI_EAMRW;
 238:Core/Src/deca_device.c ****         cnt = 2;
 239:Core/Src/deca_device.c ****     }
 240:Core/Src/deca_device.c **** 
 241:Core/Src/deca_device.c ****     switch (mode)
 242:Core/Src/deca_device.c ****     {
 243:Core/Src/deca_device.c ****     case    DW3000_SPI_AND_OR_8:
 244:Core/Src/deca_device.c ****     case    DW3000_SPI_AND_OR_16:
 245:Core/Src/deca_device.c ****     case    DW3000_SPI_AND_OR_32:
 246:Core/Src/deca_device.c ****     case    DW3000_SPI_WR_BIT:
 247:Core/Src/deca_device.c ****     {
 248:Core/Src/deca_device.c ****         uint8_t crc8 = 0;
 249:Core/Src/deca_device.c ****         if (pdw3000local->spicrc != DWT_SPI_CRC_MODE_NO)
 250:Core/Src/deca_device.c ****         {
 251:Core/Src/deca_device.c ****             //generate 8 bit CRC
 252:Core/Src/deca_device.c ****             crc8 = dwt_generatecrc8(header, cnt, 0);
 253:Core/Src/deca_device.c ****             crc8 = dwt_generatecrc8(buffer, length, crc8);
 254:Core/Src/deca_device.c **** 
 255:Core/Src/deca_device.c ****             // Write it to the SPI
 256:Core/Src/deca_device.c ****             writetospiwithcrc(cnt, header, length, buffer, crc8);
 257:Core/Src/deca_device.c ****         }
 258:Core/Src/deca_device.c ****         else
 259:Core/Src/deca_device.c ****         {
ARM GAS  /tmp/cclDsldr.s 			page 6


 260:Core/Src/deca_device.c ****             // Write it to the SPI
 261:Core/Src/deca_device.c ****             writetospi(cnt, header, length, buffer);
 262:Core/Src/deca_device.c ****         }
 263:Core/Src/deca_device.c ****         break;
 264:Core/Src/deca_device.c ****     }
 265:Core/Src/deca_device.c ****     case DW3000_SPI_RD_BIT:
 266:Core/Src/deca_device.c ****         {
 267:Core/Src/deca_device.c ****             readfromspi(cnt, header, length, buffer);
 268:Core/Src/deca_device.c **** 
 269:Core/Src/deca_device.c ****             //check that the SPI read has correct CRC-8 byte
 270:Core/Src/deca_device.c ****             //also don't do for SPICRC_CFG_ID register itself to prevent infinite recursion
 271:Core/Src/deca_device.c ****             if ((pdw3000local->spicrc == DWT_SPI_CRC_MODE_WRRD) && (regFileID != SPICRC_CFG_ID))
 272:Core/Src/deca_device.c ****             {
 273:Core/Src/deca_device.c ****                 uint8_t crc8, dwcrc8;
 274:Core/Src/deca_device.c ****                 //generate 8 bit CRC from the read data
 275:Core/Src/deca_device.c ****                 crc8 = dwt_generatecrc8(header, cnt, 0);
 276:Core/Src/deca_device.c ****                 crc8 = dwt_generatecrc8(buffer, length, crc8);
 277:Core/Src/deca_device.c **** 
 278:Core/Src/deca_device.c ****                 //read the CRC that was generated in the DW3000 for the read transaction
 279:Core/Src/deca_device.c ****                 dwcrc8 = dwt_read8bitoffsetreg(SPICRC_CFG_ID, 0);
 280:Core/Src/deca_device.c **** 
 281:Core/Src/deca_device.c ****                 //if the two CRC don't match report SPI read error
 282:Core/Src/deca_device.c ****                 //potential problem in callback if it will try to read/write SPI with CRC again.
 283:Core/Src/deca_device.c ****                 if (crc8 != dwcrc8)
 284:Core/Src/deca_device.c ****                 {
 285:Core/Src/deca_device.c ****                     if (pdw3000local->cbSPIRDErr != NULL)
 286:Core/Src/deca_device.c ****                         pdw3000local->cbSPIRDErr();
 287:Core/Src/deca_device.c ****                 }
 288:Core/Src/deca_device.c **** 
 289:Core/Src/deca_device.c ****             }
 290:Core/Src/deca_device.c ****             break;
 291:Core/Src/deca_device.c ****         }
 292:Core/Src/deca_device.c ****     default:
 293:Core/Src/deca_device.c ****         while(1);
 294:Core/Src/deca_device.c ****         break;
 295:Core/Src/deca_device.c ****     }
 296:Core/Src/deca_device.c **** 
 297:Core/Src/deca_device.c **** } // end dwt_xfer3000()
 298:Core/Src/deca_device.c **** 
 299:Core/Src/deca_device.c **** /*! -----------------------------------------------------------------------------------------------
 300:Core/Src/deca_device.c ****  * @brief  this function is used to write to the DW3000 device registers
 301:Core/Src/deca_device.c ****  *
 302:Core/Src/deca_device.c ****  * input parameters:
 303:Core/Src/deca_device.c ****  * @param recordNumber  - ID of register file or buffer being accessed
 304:Core/Src/deca_device.c ****  * @param index         - byte index into register file or buffer being accessed
 305:Core/Src/deca_device.c ****  * @param length        - number of bytes being written
 306:Core/Src/deca_device.c ****  * @param buffer        - pointer to buffer containing the 'length' bytes to be written
 307:Core/Src/deca_device.c ****  *
 308:Core/Src/deca_device.c ****  * output parameters
 309:Core/Src/deca_device.c ****  *
 310:Core/Src/deca_device.c ****  * no return value
 311:Core/Src/deca_device.c ****  */
 312:Core/Src/deca_device.c **** //static
 313:Core/Src/deca_device.c **** void dwt_writetodevice
 314:Core/Src/deca_device.c **** (
 315:Core/Src/deca_device.c ****     uint32_t      regFileID,
 316:Core/Src/deca_device.c ****     uint16_t      index,
ARM GAS  /tmp/cclDsldr.s 			page 7


 317:Core/Src/deca_device.c ****     uint16_t      length,
 318:Core/Src/deca_device.c ****     uint8_t       *buffer
 319:Core/Src/deca_device.c **** )
 320:Core/Src/deca_device.c **** {
 321:Core/Src/deca_device.c ****     dwt_xfer3000(regFileID, index, length, buffer, DW3000_SPI_WR_BIT);
 322:Core/Src/deca_device.c **** }
 323:Core/Src/deca_device.c **** 
 324:Core/Src/deca_device.c **** /*! -----------------------------------------------------------------------------------------------
 325:Core/Src/deca_device.c ****  * @brief  This function wakeup device by an IO pin. DW3000 SPI_CS or WAKEUP pins can be used for t
 326:Core/Src/deca_device.c ****  *         wakeup_device_with_io() which is external to this file and is platform dependant and it 
 327:Core/Src/deca_device.c ****  *         toggle the correct pin depending on the HW/MCU connections with DW3000.
 328:Core/Src/deca_device.c ****  *
 329:Core/Src/deca_device.c ****  * @param None
 330:Core/Src/deca_device.c ****  *
 331:Core/Src/deca_device.c ****  * output parameters
 332:Core/Src/deca_device.c ****  *
 333:Core/Src/deca_device.c ****  * no return value
 334:Core/Src/deca_device.c ****  */
 335:Core/Src/deca_device.c **** void dwt_wakeup_ic(void)
 336:Core/Src/deca_device.c **** {
 337:Core/Src/deca_device.c ****     wakeup_device_with_io();
 338:Core/Src/deca_device.c **** }
 339:Core/Src/deca_device.c **** 
 340:Core/Src/deca_device.c **** /*! -----------------------------------------------------------------------------------------------
 341:Core/Src/deca_device.c ****  * @brief  this function is used to read from the DW3000 device registers
 342:Core/Src/deca_device.c ****  *
 343:Core/Src/deca_device.c ****  * @param recordNumber  - ID of register file or buffer being accessed
 344:Core/Src/deca_device.c ****  * @param index         - byte index into register file or buffer being accessed
 345:Core/Src/deca_device.c ****  * @param length        - number of bytes being read
 346:Core/Src/deca_device.c ****  * @param buffer        - pointer to buffer in which to return the read data.
 347:Core/Src/deca_device.c ****  *
 348:Core/Src/deca_device.c ****  * output parameters
 349:Core/Src/deca_device.c ****  *
 350:Core/Src/deca_device.c ****  * no return value
 351:Core/Src/deca_device.c ****  */
 352:Core/Src/deca_device.c **** //static
 353:Core/Src/deca_device.c **** void dwt_readfromdevice
 354:Core/Src/deca_device.c **** (
 355:Core/Src/deca_device.c ****     uint32_t  regFileID,
 356:Core/Src/deca_device.c ****     uint16_t  index,
 357:Core/Src/deca_device.c ****     uint16_t  length,
 358:Core/Src/deca_device.c ****     uint8_t   *buffer
 359:Core/Src/deca_device.c **** )
 360:Core/Src/deca_device.c **** {
 361:Core/Src/deca_device.c ****     dwt_xfer3000(regFileID, index, length, buffer, DW3000_SPI_RD_BIT);
 362:Core/Src/deca_device.c **** }
 363:Core/Src/deca_device.c **** 
 364:Core/Src/deca_device.c **** /*! -----------------------------------------------------------------------------------------------
 365:Core/Src/deca_device.c ****  * @brief  this function is used to read 32-bit value from the DW3000 device registers
 366:Core/Src/deca_device.c ****  *
 367:Core/Src/deca_device.c ****  * input parameters:
 368:Core/Src/deca_device.c ****  * @param regFileID - ID of register file or buffer being accessed
 369:Core/Src/deca_device.c ****  * @param regOffset - the index into register file or buffer being accessed
 370:Core/Src/deca_device.c ****  *
 371:Core/Src/deca_device.c ****  * output parameters
 372:Core/Src/deca_device.c ****  *
 373:Core/Src/deca_device.c ****  * returns 32 bit register value
ARM GAS  /tmp/cclDsldr.s 			page 8


 374:Core/Src/deca_device.c ****  */
 375:Core/Src/deca_device.c **** uint32_t dwt_read32bitoffsetreg(int regFileID, int regOffset)
 376:Core/Src/deca_device.c **** {
 377:Core/Src/deca_device.c ****     int     j ;
 378:Core/Src/deca_device.c ****     uint32_t  regval = 0 ;
 379:Core/Src/deca_device.c ****     uint8_t   buffer[4] ;
 380:Core/Src/deca_device.c **** 
 381:Core/Src/deca_device.c ****     dwt_readfromdevice(regFileID,regOffset,4,buffer); // Read 4 bytes (32-bits) register into buffe
 382:Core/Src/deca_device.c **** 
 383:Core/Src/deca_device.c ****     for (j = 3 ; j >= 0 ; j --)
 384:Core/Src/deca_device.c ****     {
 385:Core/Src/deca_device.c ****         regval = (regval << 8) + buffer[j] ;
 386:Core/Src/deca_device.c ****     }
 387:Core/Src/deca_device.c **** 
 388:Core/Src/deca_device.c ****     return (regval);
 389:Core/Src/deca_device.c **** 
 390:Core/Src/deca_device.c **** } // end dwt_read32bitoffsetreg()
 391:Core/Src/deca_device.c **** 
 392:Core/Src/deca_device.c **** /*! -----------------------------------------------------------------------------------------------
 393:Core/Src/deca_device.c ****  * @brief  this function is used to read 16-bit value from the DW3000 device registers
 394:Core/Src/deca_device.c ****  *
 395:Core/Src/deca_device.c ****  * input parameters:
 396:Core/Src/deca_device.c ****  * @param regFileID - ID of register file or buffer being accessed
 397:Core/Src/deca_device.c ****  * @param regOffset - the index into register file or buffer being accessed
 398:Core/Src/deca_device.c ****  *
 399:Core/Src/deca_device.c ****  * output parameters
 400:Core/Src/deca_device.c ****  *
 401:Core/Src/deca_device.c ****  * returns 16 bit register value
 402:Core/Src/deca_device.c ****  */
 403:Core/Src/deca_device.c **** uint16_t dwt_read16bitoffsetreg(int regFileID,int regOffset)
 404:Core/Src/deca_device.c **** {
 405:Core/Src/deca_device.c ****     uint16_t  regval = 0 ;
 406:Core/Src/deca_device.c ****     uint8_t   buffer[2] ;
 407:Core/Src/deca_device.c **** 
 408:Core/Src/deca_device.c ****     dwt_readfromdevice(regFileID,regOffset,2,buffer); // Read 2 bytes (16-bits) register into buffe
 409:Core/Src/deca_device.c **** 
 410:Core/Src/deca_device.c ****     regval = ((uint16_t)buffer[1] << 8) + buffer[0] ;
 411:Core/Src/deca_device.c ****     return regval ;
 412:Core/Src/deca_device.c **** 
 413:Core/Src/deca_device.c **** } // end dwt_read16bitoffsetreg()
 414:Core/Src/deca_device.c **** 
 415:Core/Src/deca_device.c **** /*! -----------------------------------------------------------------------------------------------
 416:Core/Src/deca_device.c ****  * @brief  this function is used to read an 8-bit value from the DW3000 device registers
 417:Core/Src/deca_device.c ****  *
 418:Core/Src/deca_device.c ****  * input parameters:
 419:Core/Src/deca_device.c ****  * @param regFileID - ID of register file or buffer being accessed
 420:Core/Src/deca_device.c ****  * @param regOffset - the index into register file or buffer being accessed
 421:Core/Src/deca_device.c ****  *
 422:Core/Src/deca_device.c ****  * output parameters
 423:Core/Src/deca_device.c ****  *
 424:Core/Src/deca_device.c ****  * returns 8-bit register value
 425:Core/Src/deca_device.c ****  */
 426:Core/Src/deca_device.c **** uint8_t dwt_read8bitoffsetreg(int regFileID, int regOffset)
 427:Core/Src/deca_device.c **** {
 428:Core/Src/deca_device.c ****     uint8_t regval;
 429:Core/Src/deca_device.c **** 
 430:Core/Src/deca_device.c ****     dwt_readfromdevice(regFileID, regOffset, 1, &regval);
ARM GAS  /tmp/cclDsldr.s 			page 9


 431:Core/Src/deca_device.c **** 
 432:Core/Src/deca_device.c ****     return regval ;
 433:Core/Src/deca_device.c **** }
 434:Core/Src/deca_device.c **** 
 435:Core/Src/deca_device.c **** /*! -----------------------------------------------------------------------------------------------
 436:Core/Src/deca_device.c ****  * @brief  this function is used to write 32-bit value to the DW3000 device registers
 437:Core/Src/deca_device.c ****  *
 438:Core/Src/deca_device.c ****  * input parameters:
 439:Core/Src/deca_device.c ****  * @param regFileID - ID of register file or buffer being accessed
 440:Core/Src/deca_device.c ****  * @param regOffset - the index into register file or buffer being accessed
 441:Core/Src/deca_device.c ****  * @param regval    - the value to write
 442:Core/Src/deca_device.c ****  *
 443:Core/Src/deca_device.c ****  * output parameters
 444:Core/Src/deca_device.c ****  *
 445:Core/Src/deca_device.c ****  * no return value
 446:Core/Src/deca_device.c ****  */
 447:Core/Src/deca_device.c **** void dwt_write32bitoffsetreg(int regFileID, int regOffset, uint32_t regval)
 448:Core/Src/deca_device.c **** {
 449:Core/Src/deca_device.c ****     int     j ;
 450:Core/Src/deca_device.c ****     uint8_t   buffer[4] ;
 451:Core/Src/deca_device.c **** 
 452:Core/Src/deca_device.c ****     for ( j = 0 ; j < 4 ; j++ )
 453:Core/Src/deca_device.c ****     {
 454:Core/Src/deca_device.c ****         buffer[j] = (uint8_t)regval;
 455:Core/Src/deca_device.c ****         regval >>= 8 ;
 456:Core/Src/deca_device.c ****     }
 457:Core/Src/deca_device.c **** 
 458:Core/Src/deca_device.c ****     dwt_writetodevice(regFileID,regOffset,4,buffer);
 459:Core/Src/deca_device.c **** } // end dwt_write32bitoffsetreg()
 460:Core/Src/deca_device.c **** 
 461:Core/Src/deca_device.c **** /*! -----------------------------------------------------------------------------------------------
 462:Core/Src/deca_device.c ****  * @brief  this function is used to write 16-bit value to the DW3000 device registers
 463:Core/Src/deca_device.c ****  *
 464:Core/Src/deca_device.c ****  * input parameters:
 465:Core/Src/deca_device.c ****  * @param regFileID - ID of register file or buffer being accessed
 466:Core/Src/deca_device.c ****  * @param regOffset - the index into register file or buffer being accessed
 467:Core/Src/deca_device.c ****  * @param regval    - the value to write
 468:Core/Src/deca_device.c ****  *
 469:Core/Src/deca_device.c ****  * output parameters
 470:Core/Src/deca_device.c ****  *
 471:Core/Src/deca_device.c ****  * no return value
 472:Core/Src/deca_device.c ****  */
 473:Core/Src/deca_device.c **** void dwt_write16bitoffsetreg(int regFileID, int regOffset, uint16_t regval)
 474:Core/Src/deca_device.c **** {
 475:Core/Src/deca_device.c ****     uint8_t   buffer[2] ;
 476:Core/Src/deca_device.c **** 
 477:Core/Src/deca_device.c ****     buffer[0] = (uint8_t)regval;
 478:Core/Src/deca_device.c ****     buffer[1] = regval >> 8 ;
 479:Core/Src/deca_device.c **** 
 480:Core/Src/deca_device.c ****     dwt_writetodevice(regFileID,regOffset,2,buffer);
 481:Core/Src/deca_device.c **** } // end dwt_write16bitoffsetreg()
 482:Core/Src/deca_device.c **** 
 483:Core/Src/deca_device.c **** /*! -----------------------------------------------------------------------------------------------
 484:Core/Src/deca_device.c ****  * @brief  this function is used to write an 8-bit value to the DW3000 device registers
 485:Core/Src/deca_device.c ****  *
 486:Core/Src/deca_device.c ****  * input parameters:
 487:Core/Src/deca_device.c ****  * @param regFileID - ID of register file or buffer being accessed
ARM GAS  /tmp/cclDsldr.s 			page 10


 488:Core/Src/deca_device.c ****  * @param regOffset - the index into register file or buffer being accessed
 489:Core/Src/deca_device.c ****  * @param regval    - the value to write
 490:Core/Src/deca_device.c ****  *
 491:Core/Src/deca_device.c ****  * output parameters
 492:Core/Src/deca_device.c ****  *
 493:Core/Src/deca_device.c ****  * no return value
 494:Core/Src/deca_device.c ****  */
 495:Core/Src/deca_device.c **** void dwt_write8bitoffsetreg(int regFileID, int regOffset, uint8_t regval)
 496:Core/Src/deca_device.c **** {
 497:Core/Src/deca_device.c ****     //uint8_t   buf[1];
 498:Core/Src/deca_device.c ****     //buf[0] = regval;
 499:Core/Src/deca_device.c ****     dwt_writetodevice(regFileID, regOffset, 1, &regval);
 500:Core/Src/deca_device.c **** }
 501:Core/Src/deca_device.c **** 
 502:Core/Src/deca_device.c **** /*! -----------------------------------------------------------------------------------------------
 503:Core/Src/deca_device.c ****  * @brief  this function is used to modify a 32-bit value to the DW3000 device registers
 504:Core/Src/deca_device.c ****  *
 505:Core/Src/deca_device.c ****  * input parameters:
 506:Core/Src/deca_device.c ****  * @param regFileID :   ID of register file or buffer being accessed
 507:Core/Src/deca_device.c ****  * @param regOffset :   the index into register file or buffer being accessed
 508:Core/Src/deca_device.c ****  * @param regval_and:   the value to AND to register
 509:Core/Src/deca_device.c ****  * @param regval_or :   the value to OR to register
 510:Core/Src/deca_device.c ****  * @output          :   no return value
 511:Core/Src/deca_device.c ****  */
 512:Core/Src/deca_device.c **** void dwt_modify32bitoffsetreg(const int regFileID, const int regOffset, const uint32_t _and, const 
 513:Core/Src/deca_device.c **** {
 514:Core/Src/deca_device.c ****     uint8_t buf[8];
 515:Core/Src/deca_device.c ****     buf[0] = (uint8_t)_and;//       &0xFF;
 516:Core/Src/deca_device.c ****     buf[1] = (uint8_t)(_and>>8);//  &0xFF;
 517:Core/Src/deca_device.c ****     buf[2] = (uint8_t)(_and>>16);// &0xFF;
 518:Core/Src/deca_device.c ****     buf[3] = (uint8_t)(_and>>24);// &0xFF;
 519:Core/Src/deca_device.c ****     buf[4] = (uint8_t)_or;//        &0xFF;
 520:Core/Src/deca_device.c ****     buf[5] = (uint8_t)(_or>>8);//   &0xFF;
 521:Core/Src/deca_device.c ****     buf[6] = (uint8_t)(_or>>16);//  &0xFF;
 522:Core/Src/deca_device.c ****     buf[7] = (uint8_t)(_or>>24);//  &0xFF;
 523:Core/Src/deca_device.c ****     dwt_xfer3000(regFileID, regOffset, sizeof(buf), buf, DW3000_SPI_AND_OR_32);
 524:Core/Src/deca_device.c **** }
 525:Core/Src/deca_device.c **** 
 526:Core/Src/deca_device.c **** /*! -----------------------------------------------------------------------------------------------
 527:Core/Src/deca_device.c ****  * @brief  this function is used to modify a 16-bit value to the DW3000 device registers
 528:Core/Src/deca_device.c ****  *
 529:Core/Src/deca_device.c ****  * input parameters:
 530:Core/Src/deca_device.c ****  * @param regFileID :   ID of register file or buffer being accessed
 531:Core/Src/deca_device.c ****  * @param regOffset :   the index into register file or buffer being accessed
 532:Core/Src/deca_device.c ****  * @param regval_and:   the value to AND to register
 533:Core/Src/deca_device.c ****  * @param regval_or :   the value to OR to register
 534:Core/Src/deca_device.c ****  * @output          :   no return value
 535:Core/Src/deca_device.c ****  */
 536:Core/Src/deca_device.c **** void dwt_modify16bitoffsetreg(const int regFileID, const int regOffset, const uint16_t _and, const 
 537:Core/Src/deca_device.c **** {
 538:Core/Src/deca_device.c ****     uint8_t buf[4];
 539:Core/Src/deca_device.c ****     buf[0] = (uint8_t)_and;//       &0xFF;
 540:Core/Src/deca_device.c ****     buf[1] = (uint8_t)(_and>>8);//  &0xFF;
 541:Core/Src/deca_device.c ****     buf[2] = (uint8_t)_or;//        &0xFF;
 542:Core/Src/deca_device.c ****     buf[3] = (uint8_t)(_or>>8);//   &0xFF;
 543:Core/Src/deca_device.c ****     dwt_xfer3000(regFileID, regOffset, sizeof(buf), buf, DW3000_SPI_AND_OR_16);
 544:Core/Src/deca_device.c **** }
ARM GAS  /tmp/cclDsldr.s 			page 11


 545:Core/Src/deca_device.c **** 
 546:Core/Src/deca_device.c **** /*! -----------------------------------------------------------------------------------------------
 547:Core/Src/deca_device.c ****  * @brief  this function is used to modify a 8-bit value to the DW3000 device registers
 548:Core/Src/deca_device.c ****  *
 549:Core/Src/deca_device.c ****  * input parameters:
 550:Core/Src/deca_device.c ****  * @param regFileID :   ID of register file or buffer being accessed
 551:Core/Src/deca_device.c ****  * @param regOffset :   the index into register file or buffer being accessed
 552:Core/Src/deca_device.c ****  * @param regval_and:   the value to AND to register
 553:Core/Src/deca_device.c ****  * @param regval_or :   the value to OR to register
 554:Core/Src/deca_device.c ****  * @output          :   no return value
 555:Core/Src/deca_device.c ****  */
 556:Core/Src/deca_device.c **** void dwt_modify8bitoffsetreg(const int regFileID, const int regOffset, const uint8_t _and, const ui
 557:Core/Src/deca_device.c **** {
 558:Core/Src/deca_device.c ****     uint8_t buf[2];
 559:Core/Src/deca_device.c ****     buf[0] = _and;
 560:Core/Src/deca_device.c ****     buf[1] = _or;
 561:Core/Src/deca_device.c ****     dwt_xfer3000(regFileID, regOffset, sizeof(buf),buf, DW3000_SPI_AND_OR_8);
 562:Core/Src/deca_device.c **** }
 563:Core/Src/deca_device.c **** 
 564:Core/Src/deca_device.c **** static
 565:Core/Src/deca_device.c **** void _dwt_crc8init(void)
 566:Core/Src/deca_device.c **** {
  28              		.loc 1 566 1 view -0
  29              		.cfi_startproc
  30              		@ args = 0, pretend = 0, frame = 0
  31              		@ frame_needed = 0, uses_anonymous_args = 0
  32              		@ link register save eliminated.
 567:Core/Src/deca_device.c ****     uint8_t  remainder;
  33              		.loc 1 567 5 view .LVU1
 568:Core/Src/deca_device.c ****     int dividend;
  34              		.loc 1 568 5 view .LVU2
 569:Core/Src/deca_device.c **** 
 570:Core/Src/deca_device.c ****     /*
 571:Core/Src/deca_device.c ****     * Compute the remainder of each possible dividend.
 572:Core/Src/deca_device.c ****     */
 573:Core/Src/deca_device.c ****     for (dividend = 0; dividend < 256; ++dividend)
  35              		.loc 1 573 5 view .LVU3
  36              	.LVL0:
  37              		.loc 1 573 19 is_stmt 0 view .LVU4
  38 0000 0021     		movs	r1, #0
  39              		.loc 1 573 5 view .LVU5
  40 0002 0FE0     		b	.L2
  41              	.LVL1:
  42              	.L4:
  43              	.LBB2:
 574:Core/Src/deca_device.c ****     {
 575:Core/Src/deca_device.c ****         /*
 576:Core/Src/deca_device.c ****         * Start with the dividend followed by zeros.
 577:Core/Src/deca_device.c ****         */
 578:Core/Src/deca_device.c ****         remainder = dividend;
 579:Core/Src/deca_device.c **** 
 580:Core/Src/deca_device.c ****         /*
 581:Core/Src/deca_device.c ****         * Perform modulo-2 division, a bit at a time.
 582:Core/Src/deca_device.c ****         */
 583:Core/Src/deca_device.c ****         for (uint8_t bit = 8; bit > 0; --bit)
 584:Core/Src/deca_device.c ****         {
 585:Core/Src/deca_device.c ****             /*
ARM GAS  /tmp/cclDsldr.s 			page 12


 586:Core/Src/deca_device.c ****             * Try to divide the current data bit.
 587:Core/Src/deca_device.c ****             */
 588:Core/Src/deca_device.c ****             if (remainder & TOPBIT)
 589:Core/Src/deca_device.c ****             {
 590:Core/Src/deca_device.c ****                 remainder = (remainder << 1) ^ POLYNOMIAL;
 591:Core/Src/deca_device.c ****             }
 592:Core/Src/deca_device.c ****             else
 593:Core/Src/deca_device.c ****             {
 594:Core/Src/deca_device.c ****                 remainder = (remainder << 1);
  44              		.loc 1 594 17 is_stmt 1 view .LVU6
  45              		.loc 1 594 27 is_stmt 0 view .LVU7
  46 0004 5B00     		lsls	r3, r3, #1
  47              	.LVL2:
  48              		.loc 1 594 27 view .LVU8
  49 0006 DBB2     		uxtb	r3, r3
  50              	.LVL3:
  51              	.L5:
 583:Core/Src/deca_device.c ****         {
  52              		.loc 1 583 40 is_stmt 1 discriminator 2 view .LVU9
  53 0008 013A     		subs	r2, r2, #1
  54              	.LVL4:
 583:Core/Src/deca_device.c ****         {
  55              		.loc 1 583 40 is_stmt 0 discriminator 2 view .LVU10
  56 000a D2B2     		uxtb	r2, r2
  57              	.LVL5:
  58              	.L3:
 583:Core/Src/deca_device.c ****         {
  59              		.loc 1 583 31 is_stmt 1 discriminator 1 view .LVU11
 583:Core/Src/deca_device.c ****         {
  60              		.loc 1 583 9 is_stmt 0 discriminator 1 view .LVU12
  61 000c 3AB1     		cbz	r2, .L8
 588:Core/Src/deca_device.c ****             {
  62              		.loc 1 588 13 is_stmt 1 view .LVU13
 588:Core/Src/deca_device.c ****             {
  63              		.loc 1 588 16 is_stmt 0 view .LVU14
  64 000e 13F0800F 		tst	r3, #128
  65 0012 F7D0     		beq	.L4
 590:Core/Src/deca_device.c ****             }
  66              		.loc 1 590 17 is_stmt 1 view .LVU15
 590:Core/Src/deca_device.c ****             }
  67              		.loc 1 590 40 is_stmt 0 view .LVU16
  68 0014 5B00     		lsls	r3, r3, #1
  69              	.LVL6:
 590:Core/Src/deca_device.c ****             }
  70              		.loc 1 590 46 view .LVU17
  71 0016 83F00703 		eor	r3, r3, #7
 590:Core/Src/deca_device.c ****             }
  72              		.loc 1 590 27 view .LVU18
  73 001a DBB2     		uxtb	r3, r3
  74              	.LVL7:
 590:Core/Src/deca_device.c ****             }
  75              		.loc 1 590 27 view .LVU19
  76 001c F4E7     		b	.L5
  77              	.L8:
 590:Core/Src/deca_device.c ****             }
  78              		.loc 1 590 27 view .LVU20
  79              	.LBE2:
ARM GAS  /tmp/cclDsldr.s 			page 13


 595:Core/Src/deca_device.c ****             }
 596:Core/Src/deca_device.c ****         }
 597:Core/Src/deca_device.c **** 
 598:Core/Src/deca_device.c ****         /*
 599:Core/Src/deca_device.c ****         * Store the result into the table.
 600:Core/Src/deca_device.c ****         */
 601:Core/Src/deca_device.c ****         crcTable[dividend] = remainder;
  80              		.loc 1 601 9 is_stmt 1 discriminator 2 view .LVU21
  81              		.loc 1 601 28 is_stmt 0 discriminator 2 view .LVU22
  82 001e 044A     		ldr	r2, .L10
  83              	.LVL8:
  84              		.loc 1 601 28 discriminator 2 view .LVU23
  85 0020 5354     		strb	r3, [r2, r1]
 573:Core/Src/deca_device.c ****     {
  86              		.loc 1 573 40 is_stmt 1 discriminator 2 view .LVU24
  87 0022 0131     		adds	r1, r1, #1
  88              	.LVL9:
  89              	.L2:
 573:Core/Src/deca_device.c ****     {
  90              		.loc 1 573 24 discriminator 1 view .LVU25
 573:Core/Src/deca_device.c ****     {
  91              		.loc 1 573 5 is_stmt 0 discriminator 1 view .LVU26
  92 0024 FF29     		cmp	r1, #255
  93 0026 02DC     		bgt	.L9
 578:Core/Src/deca_device.c **** 
  94              		.loc 1 578 9 is_stmt 1 view .LVU27
 578:Core/Src/deca_device.c **** 
  95              		.loc 1 578 19 is_stmt 0 view .LVU28
  96 0028 CBB2     		uxtb	r3, r1
  97              	.LVL10:
 583:Core/Src/deca_device.c ****         {
  98              		.loc 1 583 9 is_stmt 1 view .LVU29
  99              	.LBB3:
 583:Core/Src/deca_device.c ****         {
 100              		.loc 1 583 14 view .LVU30
 583:Core/Src/deca_device.c ****         {
 101              		.loc 1 583 22 is_stmt 0 view .LVU31
 102 002a 0822     		movs	r2, #8
 583:Core/Src/deca_device.c ****         {
 103              		.loc 1 583 9 view .LVU32
 104 002c EEE7     		b	.L3
 105              	.LVL11:
 106              	.L9:
 583:Core/Src/deca_device.c ****         {
 107              		.loc 1 583 9 view .LVU33
 108              	.LBE3:
 602:Core/Src/deca_device.c ****     }
 603:Core/Src/deca_device.c **** 
 604:Core/Src/deca_device.c **** }   /* _dwt_crc8init() */
 109              		.loc 1 604 1 view .LVU34
 110 002e 7047     		bx	lr
 111              	.L11:
 112              		.align	2
 113              	.L10:
 114 0030 00000000 		.word	.LANCHOR0
 115              		.cfi_endproc
 116              	.LFE15:
ARM GAS  /tmp/cclDsldr.s 			page 14


 118              		.section	.text.get_sts_mnth,"ax",%progbits
 119              		.align	1
 120              		.syntax unified
 121              		.thumb
 122              		.thumb_func
 123              		.fpu fpv4-sp-d16
 125              	get_sts_mnth:
 126              	.LVL12:
 127              	.LFB37:
 605:Core/Src/deca_device.c **** 
 606:Core/Src/deca_device.c **** /*! -----------------------------------------------------------------------------------------------
 607:Core/Src/deca_device.c **** * @brief  this function is used to calculate 8-bit CRC, it uses 100000111 polynomial (i.e. P(x) = x
 608:Core/Src/deca_device.c **** * this function has been optimized to use crcTable[] and calculate the CRC on byte by byte basis.
 609:Core/Src/deca_device.c **** *
 610:Core/Src/deca_device.c **** * input parameters:
 611:Core/Src/deca_device.c **** * @param byteArray         - data to calculate CRC for
 612:Core/Src/deca_device.c **** * @param len               - length of byteArray
 613:Core/Src/deca_device.c **** * @param crcRemainderInit  - the remainder is the crc, also it is initially set to the initialisati
 614:Core/Src/deca_device.c **** *
 615:Core/Src/deca_device.c **** * output parameters
 616:Core/Src/deca_device.c **** *
 617:Core/Src/deca_device.c **** * returns 8-bit calculate CRC value
 618:Core/Src/deca_device.c **** */
 619:Core/Src/deca_device.c **** uint8_t dwt_generatecrc8(const uint8_t* byteArray, int len, uint8_t crcRemainderInit)
 620:Core/Src/deca_device.c **** {
 621:Core/Src/deca_device.c ****     uint8_t data;
 622:Core/Src/deca_device.c ****     int byte;
 623:Core/Src/deca_device.c **** 
 624:Core/Src/deca_device.c ****     /*
 625:Core/Src/deca_device.c ****     * Divide the message by the polynomial, a byte at a time.
 626:Core/Src/deca_device.c ****     */
 627:Core/Src/deca_device.c ****     for (byte = 0; byte < len; ++byte)
 628:Core/Src/deca_device.c ****     {
 629:Core/Src/deca_device.c ****         data = byteArray[byte] ^ crcRemainderInit;
 630:Core/Src/deca_device.c ****         crcRemainderInit = crcTable[data];// ^ (crcRemainderInit << 8);
 631:Core/Src/deca_device.c ****     }
 632:Core/Src/deca_device.c **** 
 633:Core/Src/deca_device.c ****     /*
 634:Core/Src/deca_device.c ****     * The final remainder is the CRC.
 635:Core/Src/deca_device.c ****     */
 636:Core/Src/deca_device.c ****     return(crcRemainderInit);
 637:Core/Src/deca_device.c **** }
 638:Core/Src/deca_device.c **** 
 639:Core/Src/deca_device.c **** /*! -----------------------------------------------------------------------------------------------
 640:Core/Src/deca_device.c **** * @brief This is used to enable SPI CRC check in DW3000
 641:Core/Src/deca_device.c **** *
 642:Core/Src/deca_device.c **** * input parameters
 643:Core/Src/deca_device.c **** * @param crc_mode - if set to DWT_SPI_CRC_MODE_WR then SPI CRC checking will be performed in DW3000
 644:Core/Src/deca_device.c **** *                   last byte of the SPI write transaction needs to be the 8-bit CRC, if it does no
 645:Core/Src/deca_device.c **** *                   the one calculated by DW3000 SPI CRC ERROR event will be set in the status regi
 646:Core/Src/deca_device.c **** *
 647:Core/Src/deca_device.c **** * @param spireaderr_cb - this needs to contain the callback function pointer which will be called w
 648:Core/Src/deca_device.c **** *                        is detected (when the DW3000 generated CRC does not match the one calculat
 649:Core/Src/deca_device.c **** *                        following the SPI read transaction)
 650:Core/Src/deca_device.c **** *
 651:Core/Src/deca_device.c **** * output parameters
 652:Core/Src/deca_device.c **** *
ARM GAS  /tmp/cclDsldr.s 			page 15


 653:Core/Src/deca_device.c **** * no return value
 654:Core/Src/deca_device.c **** */
 655:Core/Src/deca_device.c **** void dwt_enablespicrccheck(dwt_spi_crc_mode_e crc_mode, dwt_spierrcb_t spireaderr_cb)
 656:Core/Src/deca_device.c **** {
 657:Core/Src/deca_device.c ****     if (crc_mode != DWT_SPI_CRC_MODE_NO) //enable CRC check in DW3000
 658:Core/Src/deca_device.c ****     {
 659:Core/Src/deca_device.c ****         dwt_or8bitoffsetreg(SYS_CFG_ID, 0, SYS_CFG_SPI_CRC_BIT_MASK);
 660:Core/Src/deca_device.c **** 
 661:Core/Src/deca_device.c ****         if (crc_mode == DWT_SPI_CRC_MODE_WRRD) //enable CRC generation on SPI read transaction whic
 662:Core/Src/deca_device.c ****         {
 663:Core/Src/deca_device.c ****             pdw3000local->cbSPIRDErr = spireaderr_cb;
 664:Core/Src/deca_device.c ****         }
 665:Core/Src/deca_device.c ****         //initialise the crc calculation lookup table
 666:Core/Src/deca_device.c ****         _dwt_crc8init();
 667:Core/Src/deca_device.c ****     }
 668:Core/Src/deca_device.c ****     else
 669:Core/Src/deca_device.c ****     {
 670:Core/Src/deca_device.c ****         dwt_and8bitoffsetreg(SYS_CFG_ID, 0, (uint8_t)~SYS_CFG_SPI_CRC_BIT_MASK);
 671:Core/Src/deca_device.c ****     }
 672:Core/Src/deca_device.c ****     pdw3000local->spicrc = crc_mode;
 673:Core/Src/deca_device.c **** }
 674:Core/Src/deca_device.c **** 
 675:Core/Src/deca_device.c **** static
 676:Core/Src/deca_device.c **** void _dwt_prog_ldo_and_bias_tune(void)
 677:Core/Src/deca_device.c **** {
 678:Core/Src/deca_device.c ****     dwt_or16bitoffsetreg(OTP_CFG_ID, 0, LDO_BIAS_KICK);
 679:Core/Src/deca_device.c ****     dwt_and_or16bitoffsetreg(BIAS_CTRL_ID, 0, (uint16_t)~BIAS_CTRL_BIAS_MASK, pdw3000local->bias_tu
 680:Core/Src/deca_device.c **** }
 681:Core/Src/deca_device.c **** 
 682:Core/Src/deca_device.c **** /*! -----------------------------------------------------------------------------------------------
 683:Core/Src/deca_device.c **** * @brief This function is a static function used to 'kick' the desired operating parameter set (OPS
 684:Core/Src/deca_device.c **** *        It will load the required OPS table configuration based upon what OPS table was set to be 
 685:Core/Src/deca_device.c **** *
 686:Core/Src/deca_device.c **** * input parameters
 687:Core/Src/deca_device.c **** *
 688:Core/Src/deca_device.c **** * output parameters
 689:Core/Src/deca_device.c **** *
 690:Core/Src/deca_device.c **** * no return value
 691:Core/Src/deca_device.c **** */
 692:Core/Src/deca_device.c **** static
 693:Core/Src/deca_device.c **** void _dwt_kick_ops_table_on_wakeup(void)
 694:Core/Src/deca_device.c **** {
 695:Core/Src/deca_device.c ****     /* Restore OPS table config and kick. */
 696:Core/Src/deca_device.c ****     /* Correct sleep mode should be set by dwt_configure() */
 697:Core/Src/deca_device.c **** 
 698:Core/Src/deca_device.c ****     /* Using the mask of all available OPS table options, check for OPS table options in the sleep 
 699:Core/Src/deca_device.c ****     switch (pdw3000local->sleep_mode & (DWT_ALT_OPS | DWT_SEL_OPS0 | DWT_SEL_OPS1 | DWT_SEL_OPS2 | 
 700:Core/Src/deca_device.c ****     {
 701:Core/Src/deca_device.c ****     /* If preamble length >= 256 and set by dwt_configure(), the OPS table should be kicked off lik
 702:Core/Src/deca_device.c ****     case (DWT_ALT_OPS | DWT_SEL_OPS0):
 703:Core/Src/deca_device.c ****         dwt_modify32bitoffsetreg(OTP_CFG_ID, 0, ~(OTP_CFG_OPS_ID_BIT_MASK), DWT_OPSET_LONG | OTP_CF
 704:Core/Src/deca_device.c ****         break;
 705:Core/Src/deca_device.c ****     /* If SCP mode is enabled by dwt_configure(), the OPS table should be kicked off like so upon w
 706:Core/Src/deca_device.c ****     case (DWT_ALT_OPS | DWT_SEL_OPS1):
 707:Core/Src/deca_device.c ****         dwt_modify32bitoffsetreg(OTP_CFG_ID, 0, ~(OTP_CFG_OPS_ID_BIT_MASK), DWT_OPSET_SCP | OTP_CFG
 708:Core/Src/deca_device.c ****         break;
 709:Core/Src/deca_device.c ****     default:
ARM GAS  /tmp/cclDsldr.s 			page 16


 710:Core/Src/deca_device.c ****         break;
 711:Core/Src/deca_device.c ****     }
 712:Core/Src/deca_device.c **** }
 713:Core/Src/deca_device.c **** 
 714:Core/Src/deca_device.c **** /*! -----------------------------------------------------------------------------------------------
 715:Core/Src/deca_device.c **** * @brief This function is a static function used to 'kick' the DGC upon wakeup from sleep. It will 
 716:Core/Src/deca_device.c **** *        required DGC configuration from OTP based upon what channel was set to be used in dwt_conf
 717:Core/Src/deca_device.c **** *
 718:Core/Src/deca_device.c **** * input parameters
 719:Core/Src/deca_device.c **** * @param channel - specifies the operating channel (e.g. 5 or 9)
 720:Core/Src/deca_device.c **** *
 721:Core/Src/deca_device.c **** * output parameters
 722:Core/Src/deca_device.c **** *
 723:Core/Src/deca_device.c **** * no return value
 724:Core/Src/deca_device.c **** */
 725:Core/Src/deca_device.c **** static
 726:Core/Src/deca_device.c **** void _dwt_kick_dgc_on_wakeup(int8_t channel)
 727:Core/Src/deca_device.c **** {
 728:Core/Src/deca_device.c ****     /* The DGC_SEL bit must be set to '0' for channel 5 and '1' for channel 9 */
 729:Core/Src/deca_device.c ****     if (channel == 5)
 730:Core/Src/deca_device.c ****     {
 731:Core/Src/deca_device.c ****         dwt_modify32bitoffsetreg(OTP_CFG_ID, 0, ~(OTP_CFG_DGC_SEL_BIT_MASK),
 732:Core/Src/deca_device.c ****                 (DWT_DGC_SEL_CH5 << OTP_CFG_DGC_SEL_BIT_OFFSET) | OTP_CFG_DGC_KICK_BIT_MASK);
 733:Core/Src/deca_device.c ****     }
 734:Core/Src/deca_device.c ****     else if (channel == 9)
 735:Core/Src/deca_device.c ****     {
 736:Core/Src/deca_device.c ****         dwt_modify32bitoffsetreg(OTP_CFG_ID, 0, ~(OTP_CFG_DGC_SEL_BIT_MASK),
 737:Core/Src/deca_device.c ****                 (DWT_DGC_SEL_CH9 << OTP_CFG_DGC_SEL_BIT_OFFSET) | OTP_CFG_DGC_KICK_BIT_MASK);
 738:Core/Src/deca_device.c ****     }
 739:Core/Src/deca_device.c **** }
 740:Core/Src/deca_device.c **** 
 741:Core/Src/deca_device.c **** /*! -----------------------------------------------------------------------------------------------
 742:Core/Src/deca_device.c ****  * @brief This function initialises the DW3000 transceiver:
 743:Core/Src/deca_device.c ****  * it reads its DEV_ID register (address 0x00) to verify the IC is one supported
 744:Core/Src/deca_device.c ****  * by this software (e.g. DW3000 32-bit device ID value is 0xDECA03xx).  Then it
 745:Core/Src/deca_device.c ****  * does any initial once only device configurations needed for use and initialises
 746:Core/Src/deca_device.c ****  * as necessary any static data items belonging to this low-level driver.
 747:Core/Src/deca_device.c ****  *
 748:Core/Src/deca_device.c ****  * NOTES:
 749:Core/Src/deca_device.c ****  * 1.it also reads and applies LDO and BIAS tune and crystal trim values from OTP memory
 750:Core/Src/deca_device.c ****  * 2.it is assumed this function is called after a reset or on power up of the DW3000
 751:Core/Src/deca_device.c ****  *
 752:Core/Src/deca_device.c ****  * input parameters
 753:Core/Src/deca_device.c ****  * @param mode - mask which defines which OTP values to read.
 754:Core/Src/deca_device.c ****  *
 755:Core/Src/deca_device.c ****  * output parameters
 756:Core/Src/deca_device.c ****  *
 757:Core/Src/deca_device.c ****  * returns DWT_SUCCESS for success, or DWT_ERROR for error
 758:Core/Src/deca_device.c ****  */
 759:Core/Src/deca_device.c **** int dwt_initialise(int mode)
 760:Core/Src/deca_device.c **** {
 761:Core/Src/deca_device.c ****    //uint16_t otp_addr;
 762:Core/Src/deca_device.c ****    //uint32_t devid;
 763:Core/Src/deca_device.c ****     uint32_t ldo_tune_lo;
 764:Core/Src/deca_device.c ****     uint32_t ldo_tune_hi;
 765:Core/Src/deca_device.c **** 
 766:Core/Src/deca_device.c ****     pdw3000local->dblbuffon = DBL_BUFF_OFF; // Double buffer mode off by default / clear the flag
ARM GAS  /tmp/cclDsldr.s 			page 17


 767:Core/Src/deca_device.c ****     pdw3000local->sleep_mode = DWT_RUNSAR;  // Configure RUN_SAR on wake by default as it is needed
 768:Core/Src/deca_device.c ****     pdw3000local->spicrc = 0;
 769:Core/Src/deca_device.c ****     pdw3000local->stsconfig = 0; //STS off
 770:Core/Src/deca_device.c ****     pdw3000local->vBatP = 0;
 771:Core/Src/deca_device.c ****     pdw3000local->tempP = 0;
 772:Core/Src/deca_device.c **** 
 773:Core/Src/deca_device.c ****     pdw3000local->cbTxDone = NULL;
 774:Core/Src/deca_device.c ****     pdw3000local->cbRxOk = NULL;
 775:Core/Src/deca_device.c ****     pdw3000local->cbRxTo = NULL;
 776:Core/Src/deca_device.c ****     pdw3000local->cbRxErr = NULL;
 777:Core/Src/deca_device.c ****     pdw3000local->cbSPIRdy = NULL;
 778:Core/Src/deca_device.c ****     pdw3000local->cbSPIErr = NULL;
 779:Core/Src/deca_device.c **** 
 780:Core/Src/deca_device.c ****     // Read and validate device ID return -1 if not recognised
 781:Core/Src/deca_device.c ****     if (dwt_check_dev_id()!=DWT_SUCCESS)
 782:Core/Src/deca_device.c ****     {
 783:Core/Src/deca_device.c ****         return DWT_ERROR;
 784:Core/Src/deca_device.c ****     }
 785:Core/Src/deca_device.c **** 
 786:Core/Src/deca_device.c ****     //Read LDO_TUNE and BIAS_TUNE from OTP
 787:Core/Src/deca_device.c ****     ldo_tune_lo = _dwt_otpread(LDOTUNELO_ADDRESS);
 788:Core/Src/deca_device.c ****     ldo_tune_hi = _dwt_otpread(LDOTUNEHI_ADDRESS);
 789:Core/Src/deca_device.c ****     pdw3000local->bias_tune = (_dwt_otpread(BIAS_TUNE_ADDRESS) >> 16) & BIAS_CTRL_BIAS_MASK;
 790:Core/Src/deca_device.c **** 
 791:Core/Src/deca_device.c ****     if ((ldo_tune_lo != 0) && (ldo_tune_hi != 0) && (pdw3000local->bias_tune != 0))
 792:Core/Src/deca_device.c ****     {
 793:Core/Src/deca_device.c ****         _dwt_prog_ldo_and_bias_tune();
 794:Core/Src/deca_device.c ****     }
 795:Core/Src/deca_device.c **** 
 796:Core/Src/deca_device.c ****     // Read DGC_CFG from OTP
 797:Core/Src/deca_device.c ****     if (_dwt_otpread(DGC_TUNE_ADDRESS) == DWT_DGC_CFG0)
 798:Core/Src/deca_device.c ****     {
 799:Core/Src/deca_device.c ****         pdw3000local->dgc_otp_set = DWT_DGC_LOAD_FROM_OTP;
 800:Core/Src/deca_device.c ****     }
 801:Core/Src/deca_device.c ****     else
 802:Core/Src/deca_device.c ****     {
 803:Core/Src/deca_device.c ****         pdw3000local->dgc_otp_set = DWT_DGC_LOAD_FROM_SW;
 804:Core/Src/deca_device.c ****     }
 805:Core/Src/deca_device.c **** 
 806:Core/Src/deca_device.c ****     // Load Part and Lot ID from OTP
 807:Core/Src/deca_device.c ****     if(mode & DWT_READ_OTP_PID)
 808:Core/Src/deca_device.c ****         pdw3000local->partID = _dwt_otpread(PARTID_ADDRESS);
 809:Core/Src/deca_device.c ****     if (mode & DWT_READ_OTP_LID)
 810:Core/Src/deca_device.c ****         pdw3000local->lotID = _dwt_otpread(LOTID_ADDRESS);
 811:Core/Src/deca_device.c ****     if (mode & DWT_READ_OTP_BAT)
 812:Core/Src/deca_device.c ****         pdw3000local->vBatP = (uint8_t)_dwt_otpread(VBAT_ADDRESS);
 813:Core/Src/deca_device.c ****     if (mode & DWT_READ_OTP_TMP)
 814:Core/Src/deca_device.c ****         pdw3000local->tempP = (uint8_t)_dwt_otpread(VTEMP_ADDRESS);
 815:Core/Src/deca_device.c **** 
 816:Core/Src/deca_device.c **** 
 817:Core/Src/deca_device.c ****     if(pdw3000local->tempP == 0) //if the reference temperature has not been programmed in OTP (ear
 818:Core/Src/deca_device.c ****     {
 819:Core/Src/deca_device.c ****         pdw3000local->tempP = 0x85 ; //@temp of 20 deg
 820:Core/Src/deca_device.c ****     }
 821:Core/Src/deca_device.c **** 
 822:Core/Src/deca_device.c ****     if(pdw3000local->vBatP == 0) //if the reference voltage has not been programmed in OTP (early e
 823:Core/Src/deca_device.c ****     {
ARM GAS  /tmp/cclDsldr.s 			page 18


 824:Core/Src/deca_device.c ****         pdw3000local->vBatP = 0x74 ;  //@Vref of 3.0V
 825:Core/Src/deca_device.c ****     }
 826:Core/Src/deca_device.c **** 
 827:Core/Src/deca_device.c ****     pdw3000local->otprev = (uint8_t) _dwt_otpread(OTPREV_ADDRESS);
 828:Core/Src/deca_device.c **** 
 829:Core/Src/deca_device.c ****     pdw3000local->init_xtrim = _dwt_otpread(XTRIM_ADDRESS) & 0x7f;
 830:Core/Src/deca_device.c ****     if(pdw3000local->init_xtrim == 0)
 831:Core/Src/deca_device.c ****     {
 832:Core/Src/deca_device.c ****         pdw3000local->init_xtrim = 0x2E ; //set default value
 833:Core/Src/deca_device.c ****     }
 834:Core/Src/deca_device.c ****     dwt_write8bitoffsetreg(XTAL_ID, 0, pdw3000local->init_xtrim);
 835:Core/Src/deca_device.c **** 
 836:Core/Src/deca_device.c **** 
 837:Core/Src/deca_device.c ****     return DWT_SUCCESS ;
 838:Core/Src/deca_device.c **** 
 839:Core/Src/deca_device.c **** } // end dwt_initialise()
 840:Core/Src/deca_device.c **** 
 841:Core/Src/deca_device.c **** /*! -----------------------------------------------------------------------------------------------
 842:Core/Src/deca_device.c ****  * @brief This function can place DW3000 into IDLE/IDLE_PLL or IDLE_RC mode when it is not actively
 843:Core/Src/deca_device.c ****  *
 844:Core/Src/deca_device.c ****  * input parameters
 845:Core/Src/deca_device.c ****  * @param state - DWT_DW_IDLE (1) to put DW3000 into IDLE/IDLE_PLL state; DWT_DW_INIT (0) to put DW
 846:Core/Src/deca_device.c ****  *                DWT_DW_IDLE_RC (2) to put DW3000 into IDLE_RC state.
 847:Core/Src/deca_device.c ****  *
 848:Core/Src/deca_device.c ****  * output parameters none
 849:Core/Src/deca_device.c ****  *
 850:Core/Src/deca_device.c ****  * no return value
 851:Core/Src/deca_device.c ****  */
 852:Core/Src/deca_device.c **** void dwt_setdwstate(int state)
 853:Core/Src/deca_device.c **** {
 854:Core/Src/deca_device.c ****     if (state == DWT_DW_IDLE) // Set the auto INIT2IDLE bit so that DW3000 enters IDLE mode before 
 855:Core/Src/deca_device.c ****     //NOTE: PLL should be configured prior to this, and the device should be in IDLE_RC (if the PLL
 856:Core/Src/deca_device.c ****     {
 857:Core/Src/deca_device.c ****         //switch clock to auto - if coming here from INIT_RC the clock will be FOSC/4, need to swit
 858:Core/Src/deca_device.c ****         dwt_force_clocks(FORCE_CLK_AUTO);
 859:Core/Src/deca_device.c ****         dwt_or8bitoffsetreg(SEQ_CTRL_ID, 0x01, SEQ_CTRL_AINIT2IDLE_BIT_MASK>>8);
 860:Core/Src/deca_device.c ****     }
 861:Core/Src/deca_device.c ****     else if(state == DWT_DW_IDLE_RC)  //Change state to IDLE_RC and clear auto INIT2IDLE bit
 862:Core/Src/deca_device.c ****     {
 863:Core/Src/deca_device.c ****         //switch clock to FOSC
 864:Core/Src/deca_device.c ****         dwt_or8bitoffsetreg(CLK_CTRL_ID, 0, FORCE_SYSCLK_FOSC);
 865:Core/Src/deca_device.c ****         //clear the auto INIT2IDLE bit and set FORCE2INIT
 866:Core/Src/deca_device.c ****         dwt_modify32bitoffsetreg(SEQ_CTRL_ID, 0x0, (uint32_t) ~SEQ_CTRL_AINIT2IDLE_BIT_MASK, SEQ_CT
 867:Core/Src/deca_device.c ****         //clear force bits (device will stay in IDLE_RC)
 868:Core/Src/deca_device.c ****         dwt_and8bitoffsetreg(SEQ_CTRL_ID, 0x2, (uint8_t) ~(SEQ_CTRL_FORCE2INIT_BIT_MASK>>16));
 869:Core/Src/deca_device.c ****         //switch clock to auto
 870:Core/Src/deca_device.c ****         dwt_force_clocks(FORCE_CLK_AUTO);
 871:Core/Src/deca_device.c ****     }
 872:Core/Src/deca_device.c ****     else
 873:Core/Src/deca_device.c ****     //NOTE: the SPI rate needs to be <= 7MHz as device is switching to INIT_RC state
 874:Core/Src/deca_device.c ****     {
 875:Core/Src/deca_device.c ****         dwt_or8bitoffsetreg(CLK_CTRL_ID, 0, FORCE_SYSCLK_FOSCDIV4);
 876:Core/Src/deca_device.c ****         //clear the auto INIT2IDLE bit and set FORCE2INIT
 877:Core/Src/deca_device.c ****         dwt_modify32bitoffsetreg(SEQ_CTRL_ID, 0x0, (uint32_t) ~SEQ_CTRL_AINIT2IDLE_BIT_MASK, SEQ_CT
 878:Core/Src/deca_device.c ****         dwt_and8bitoffsetreg(SEQ_CTRL_ID, 0x2, (uint8_t) ~(SEQ_CTRL_FORCE2INIT_BIT_MASK>>16));
 879:Core/Src/deca_device.c ****     }
 880:Core/Src/deca_device.c **** }
ARM GAS  /tmp/cclDsldr.s 			page 19


 881:Core/Src/deca_device.c **** 
 882:Core/Src/deca_device.c **** /*! -----------------------------------------------------------------------------------------------
 883:Core/Src/deca_device.c ****  * @brief This is used to enable GPIO clocks. The clocks are needed to ensure correct GPIO operatio
 884:Core/Src/deca_device.c ****  *
 885:Core/Src/deca_device.c ****  * input parameters
 886:Core/Src/deca_device.c ****  *
 887:Core/Src/deca_device.c ****  * output parameters
 888:Core/Src/deca_device.c ****  *
 889:Core/Src/deca_device.c ****  * no return value
 890:Core/Src/deca_device.c ****  */
 891:Core/Src/deca_device.c **** void dwt_enablegpioclocks(void)
 892:Core/Src/deca_device.c **** {
 893:Core/Src/deca_device.c ****     dwt_or32bitoffsetreg(CLK_CTRL_ID, 0, CLK_CTRL_GPIO_CLK_EN_BIT_MASK);
 894:Core/Src/deca_device.c **** }
 895:Core/Src/deca_device.c **** 
 896:Core/Src/deca_device.c **** /*! -----------------------------------------------------------------------------------------------
 897:Core/Src/deca_device.c ****  * @brief This is used to return the read OTP revision
 898:Core/Src/deca_device.c ****  *
 899:Core/Src/deca_device.c ****  * NOTE: dwt_initialise() must be called prior to this function so that it can return a relevant va
 900:Core/Src/deca_device.c ****  *
 901:Core/Src/deca_device.c ****  * input parameters
 902:Core/Src/deca_device.c ****  *
 903:Core/Src/deca_device.c ****  * output parameters
 904:Core/Src/deca_device.c ****  *
 905:Core/Src/deca_device.c ****  * returns the read OTP revision value
 906:Core/Src/deca_device.c ****  */
 907:Core/Src/deca_device.c **** uint8_t dwt_otprevision(void)
 908:Core/Src/deca_device.c **** {
 909:Core/Src/deca_device.c ****     return pdw3000local->otprev ;
 910:Core/Src/deca_device.c **** }
 911:Core/Src/deca_device.c **** 
 912:Core/Src/deca_device.c **** /*! -----------------------------------------------------------------------------------------------
 913:Core/Src/deca_device.c ****  * @brief This function enables/disables the fine grain TX sequencing (this is enabled by default i
 914:Core/Src/deca_device.c ****  *
 915:Core/Src/deca_device.c ****  * input parameters
 916:Core/Src/deca_device.c ****  * @param enable - 1 to enable fine grain TX sequencing, 0 to disable it.
 917:Core/Src/deca_device.c ****  *
 918:Core/Src/deca_device.c ****  * output parameters none
 919:Core/Src/deca_device.c ****  *
 920:Core/Src/deca_device.c ****  * no return value
 921:Core/Src/deca_device.c ****  */
 922:Core/Src/deca_device.c **** void dwt_setfinegraintxseq(int enable)
 923:Core/Src/deca_device.c **** {
 924:Core/Src/deca_device.c ****     if (enable)
 925:Core/Src/deca_device.c ****     {
 926:Core/Src/deca_device.c ****         dwt_write32bitoffsetreg(PWR_UP_TIMES_LO_ID, 2, PMSC_TXFINESEQ_ENABLE);
 927:Core/Src/deca_device.c ****     }
 928:Core/Src/deca_device.c ****     else
 929:Core/Src/deca_device.c ****     {
 930:Core/Src/deca_device.c ****         dwt_write32bitoffsetreg(PWR_UP_TIMES_LO_ID, 2, PMSC_TXFINESEQ_DISABLE);
 931:Core/Src/deca_device.c ****     }
 932:Core/Src/deca_device.c **** }
 933:Core/Src/deca_device.c **** 
 934:Core/Src/deca_device.c **** /*! -----------------------------------------------------------------------------------------------
 935:Core/Src/deca_device.c ****  * @brief This is used to enable GPIO for external LNA or PA functionality - HW dependent, consult 
 936:Core/Src/deca_device.c ****  *        This can also be used for debug as enabling TX and RX GPIOs is quite handy to monitor DW3
 937:Core/Src/deca_device.c ****  *
ARM GAS  /tmp/cclDsldr.s 			page 20


 938:Core/Src/deca_device.c ****  * NOTE: Enabling PA functionality requires that fine grain TX sequencing is deactivated. This can 
 939:Core/Src/deca_device.c ****  *       dwt_setfinegraintxseq().
 940:Core/Src/deca_device.c ****  *
 941:Core/Src/deca_device.c ****  * input parameters
 942:Core/Src/deca_device.c ****  * @param lna_pa - bit field: bit 0 if set will enable LNA functionality,
 943:Core/Src/deca_device.c ****  *                          : bit 1 if set will enable PA functionality,
 944:Core/Src/deca_device.c ****  *                          : to disable LNA/PA set the bits to 0
 945:Core/Src/deca_device.c ****  * output parameters
 946:Core/Src/deca_device.c ****  *
 947:Core/Src/deca_device.c ****  * no return value
 948:Core/Src/deca_device.c ****  */
 949:Core/Src/deca_device.c **** void dwt_setlnapamode(int lna_pa)
 950:Core/Src/deca_device.c **** {
 951:Core/Src/deca_device.c ****     uint32_t gpio_mode = dwt_read32bitreg(GPIO_MODE_ID);
 952:Core/Src/deca_device.c ****     gpio_mode &= (~(GPIO_MODE_MSGP0_MODE_BIT_MASK | GPIO_MODE_MSGP1_MODE_BIT_MASK
 953:Core/Src/deca_device.c ****             | GPIO_MODE_MSGP4_MODE_BIT_MASK | GPIO_MODE_MSGP5_MODE_BIT_MASK | GPIO_MODE_MSGP6_MODE_
 954:Core/Src/deca_device.c ****     if (lna_pa & DWT_LNA_ENABLE)
 955:Core/Src/deca_device.c ****     {
 956:Core/Src/deca_device.c ****         gpio_mode |= GPIO_PIN6_EXTRX;   
 957:Core/Src/deca_device.c ****     }
 958:Core/Src/deca_device.c ****     if (lna_pa & DWT_PA_ENABLE)
 959:Core/Src/deca_device.c ****     {
 960:Core/Src/deca_device.c ****         gpio_mode |= (GPIO_PIN4_EXTDA | GPIO_PIN5_EXTTX);
 961:Core/Src/deca_device.c ****     }
 962:Core/Src/deca_device.c ****     if (lna_pa & DWT_TXRX_EN)
 963:Core/Src/deca_device.c ****     {
 964:Core/Src/deca_device.c ****         gpio_mode |= (GPIO_PIN0_EXTTXE | GPIO_PIN1_EXTRXE);
 965:Core/Src/deca_device.c ****     }
 966:Core/Src/deca_device.c **** 
 967:Core/Src/deca_device.c ****     dwt_write32bitreg(GPIO_MODE_ID, gpio_mode);
 968:Core/Src/deca_device.c **** }
 969:Core/Src/deca_device.c **** 
 970:Core/Src/deca_device.c **** /*! -----------------------------------------------------------------------------------------------
 971:Core/Src/deca_device.c ****  * @brief Returns the PG delay value of the TX
 972:Core/Src/deca_device.c ****  *
 973:Core/Src/deca_device.c ****  * input parameters
 974:Core/Src/deca_device.c ****  *
 975:Core/Src/deca_device.c ****  * output parameters
 976:Core/Src/deca_device.c ****  *
 977:Core/Src/deca_device.c ****  * returns uint8_t
 978:Core/Src/deca_device.c ****  */
 979:Core/Src/deca_device.c **** uint8_t dwt_readpgdelay(void)
 980:Core/Src/deca_device.c **** {
 981:Core/Src/deca_device.c ****     return dwt_read8bitoffsetreg(TX_CTRL_HI_ID, 0);
 982:Core/Src/deca_device.c **** }
 983:Core/Src/deca_device.c **** 
 984:Core/Src/deca_device.c **** /*! -----------------------------------------------------------------------------------------------
 985:Core/Src/deca_device.c ****  * @brief This is used to return the read V measured @ 3.3 V value recorded in OTP address 0x8 (VBA
 986:Core/Src/deca_device.c ****  *
 987:Core/Src/deca_device.c ****  * NOTE: dwt_initialise() must be called prior to this function so that it can return a relevant va
 988:Core/Src/deca_device.c ****  *
 989:Core/Src/deca_device.c ****  * input parameters
 990:Core/Src/deca_device.c ****  *
 991:Core/Src/deca_device.c ****  * output parameters
 992:Core/Src/deca_device.c ****  *
 993:Core/Src/deca_device.c ****  * returns the 8 bit V bat value as programmed in the factory
 994:Core/Src/deca_device.c ****  */
ARM GAS  /tmp/cclDsldr.s 			page 21


 995:Core/Src/deca_device.c **** uint8_t dwt_geticrefvolt(void)
 996:Core/Src/deca_device.c **** {
 997:Core/Src/deca_device.c ****     return pdw3000local->vBatP;
 998:Core/Src/deca_device.c **** }
 999:Core/Src/deca_device.c **** 
1000:Core/Src/deca_device.c **** /*! -----------------------------------------------------------------------------------------------
1001:Core/Src/deca_device.c **** * @brief This is used to return the read T measured @ 23 C value recorded in OTP address 0x9 (VTEMP
1002:Core/Src/deca_device.c **** *
1003:Core/Src/deca_device.c **** * NOTE: dwt_initialise() must be called prior to this function so that it can return a relevant val
1004:Core/Src/deca_device.c **** *
1005:Core/Src/deca_device.c **** * input parameters
1006:Core/Src/deca_device.c **** *
1007:Core/Src/deca_device.c **** * output parameters
1008:Core/Src/deca_device.c **** *
1009:Core/Src/deca_device.c **** * returns the 8 bit V temp value as programmed in the factory
1010:Core/Src/deca_device.c **** */
1011:Core/Src/deca_device.c **** uint8_t dwt_geticreftemp(void)
1012:Core/Src/deca_device.c **** {
1013:Core/Src/deca_device.c ****     return pdw3000local->tempP;
1014:Core/Src/deca_device.c **** }
1015:Core/Src/deca_device.c **** 
1016:Core/Src/deca_device.c **** /*! -----------------------------------------------------------------------------------------------
1017:Core/Src/deca_device.c ****  * @brief This is used to return the read part ID of the device
1018:Core/Src/deca_device.c ****  *
1019:Core/Src/deca_device.c ****  * NOTE: dwt_initialise() must be called prior to this function so that it can return a relevant va
1020:Core/Src/deca_device.c ****  *
1021:Core/Src/deca_device.c ****  * input parameters
1022:Core/Src/deca_device.c ****  *
1023:Core/Src/deca_device.c ****  * output parameters
1024:Core/Src/deca_device.c ****  *
1025:Core/Src/deca_device.c ****  * returns the 32 bit part ID value as programmed in the factory
1026:Core/Src/deca_device.c ****  */
1027:Core/Src/deca_device.c **** uint32_t dwt_getpartid(void)
1028:Core/Src/deca_device.c **** {
1029:Core/Src/deca_device.c ****     return pdw3000local->partID;
1030:Core/Src/deca_device.c **** }
1031:Core/Src/deca_device.c **** 
1032:Core/Src/deca_device.c **** /*! -----------------------------------------------------------------------------------------------
1033:Core/Src/deca_device.c ****  * @brief This is used to return the read lot ID of the device
1034:Core/Src/deca_device.c ****  *
1035:Core/Src/deca_device.c ****  * NOTE: dwt_initialise() must be called prior to this function so that it can return a relevant va
1036:Core/Src/deca_device.c ****  *
1037:Core/Src/deca_device.c ****  * input parameters
1038:Core/Src/deca_device.c ****  *
1039:Core/Src/deca_device.c ****  * output parameters
1040:Core/Src/deca_device.c ****  *
1041:Core/Src/deca_device.c ****  * returns the 32 bit lot ID value as programmed in the factory
1042:Core/Src/deca_device.c ****  */
1043:Core/Src/deca_device.c **** uint32_t dwt_getlotid(void)
1044:Core/Src/deca_device.c **** {
1045:Core/Src/deca_device.c ****     return pdw3000local->lotID;
1046:Core/Src/deca_device.c **** }
1047:Core/Src/deca_device.c **** 
1048:Core/Src/deca_device.c **** /*! -----------------------------------------------------------------------------------------------
1049:Core/Src/deca_device.c ****  * @brief This is used to return the read device type and revision information of the DW3000 device
1050:Core/Src/deca_device.c ****  *
1051:Core/Src/deca_device.c ****  * input parameters
ARM GAS  /tmp/cclDsldr.s 			page 22


1052:Core/Src/deca_device.c ****  *
1053:Core/Src/deca_device.c ****  * output parameters
1054:Core/Src/deca_device.c ****  *
1055:Core/Src/deca_device.c ****  * returns the read value which for DW3000 is 0xDECA0312/0xDECA0302
1056:Core/Src/deca_device.c ****  */
1057:Core/Src/deca_device.c **** uint32_t dwt_readdevid(void)
1058:Core/Src/deca_device.c **** {
1059:Core/Src/deca_device.c ****     return dwt_read32bitoffsetreg(DEV_ID_ID, 0);
1060:Core/Src/deca_device.c **** }
1061:Core/Src/deca_device.c **** 
1062:Core/Src/deca_device.c **** /*! -----------------------------------------------------------------------------------------------
1063:Core/Src/deca_device.c ****  * @brief This function provides the API for the configuration of the TX spectrum
1064:Core/Src/deca_device.c ****  * including the power and pulse generator delay. The input is a pointer to the data structure
1065:Core/Src/deca_device.c ****  * of type dwt_txconfig_t that holds all the configurable items.
1066:Core/Src/deca_device.c ****  *
1067:Core/Src/deca_device.c ****  * input parameters
1068:Core/Src/deca_device.c ****  * @param config    -   pointer to the txrf configuration structure, which contains the tx rf confi
1069:Core/Src/deca_device.c ****  *                      If config->PGcount == 0 the PGdelay value will be used, else the PG calibra
1070:Core/Src/deca_device.c ****  *
1071:Core/Src/deca_device.c ****  * output parameters
1072:Core/Src/deca_device.c ****  *
1073:Core/Src/deca_device.c ****  * no return value
1074:Core/Src/deca_device.c ****  */
1075:Core/Src/deca_device.c **** void dwt_configuretxrf(dwt_txconfig_t *config)
1076:Core/Src/deca_device.c **** {
1077:Core/Src/deca_device.c ****     if (config->PGcount == 0) {
1078:Core/Src/deca_device.c ****         // Configure RF TX PG_DELAY
1079:Core/Src/deca_device.c ****         dwt_write8bitoffsetreg(TX_CTRL_HI_ID, 0, config->PGdly);
1080:Core/Src/deca_device.c ****     }
1081:Core/Src/deca_device.c ****     else
1082:Core/Src/deca_device.c ****     {
1083:Core/Src/deca_device.c ****         uint8_t channel = 5;
1084:Core/Src/deca_device.c ****         if (dwt_read8bitoffsetreg(CHAN_CTRL_ID, 0) & 0x1)
1085:Core/Src/deca_device.c ****         {
1086:Core/Src/deca_device.c ****             channel = 9;
1087:Core/Src/deca_device.c ****         }
1088:Core/Src/deca_device.c ****         dwt_calcbandwidthadj(config->PGcount, channel);
1089:Core/Src/deca_device.c ****     }
1090:Core/Src/deca_device.c **** 
1091:Core/Src/deca_device.c ****     // Configure TX power
1092:Core/Src/deca_device.c ****     dwt_write32bitreg(TX_POWER_ID, config->power);
1093:Core/Src/deca_device.c **** }
1094:Core/Src/deca_device.c **** 
1095:Core/Src/deca_device.c **** /*! -----------------------------------------------------------------------------------------------
1096:Core/Src/deca_device.c ****  * @brief This function configures the STS AES 128 bit key value.
1097:Core/Src/deca_device.c ****  * the default value is [31:00]c9a375fa,
1098:Core/Src/deca_device.c ****  *                      [63:32]8df43a20,
1099:Core/Src/deca_device.c ****  *                      [95:64]b5e5a4ed,
1100:Core/Src/deca_device.c ****  *                     [127:96]0738123b
1101:Core/Src/deca_device.c ****  *
1102:Core/Src/deca_device.c ****  * input parameters
1103:Core/Src/deca_device.c ****  * @param pStsKey - the pointer to the structure of dwt_sts_cp_key_t type, which holds the AES128 k
1104:Core/Src/deca_device.c ****  *
1105:Core/Src/deca_device.c ****  * output parameters
1106:Core/Src/deca_device.c ****  *
1107:Core/Src/deca_device.c ****  * no return value
1108:Core/Src/deca_device.c ****  */
ARM GAS  /tmp/cclDsldr.s 			page 23


1109:Core/Src/deca_device.c **** void dwt_configurestskey(dwt_sts_cp_key_t* pStsKey)
1110:Core/Src/deca_device.c **** {
1111:Core/Src/deca_device.c ****     dwt_write32bitreg(STS_KEY0_ID, pStsKey->key0);
1112:Core/Src/deca_device.c ****     dwt_write32bitreg(STS_KEY1_ID, pStsKey->key1);
1113:Core/Src/deca_device.c ****     dwt_write32bitreg(STS_KEY2_ID, pStsKey->key2);
1114:Core/Src/deca_device.c ****     dwt_write32bitreg(STS_KEY3_ID, pStsKey->key3);
1115:Core/Src/deca_device.c **** }
1116:Core/Src/deca_device.c **** 
1117:Core/Src/deca_device.c **** /*! -----------------------------------------------------------------------------------------------
1118:Core/Src/deca_device.c ****  * @brief This function configures the STS AES 128 bit initial value, the default value is 1, i.e. 
1119:Core/Src/deca_device.c ****  *
1120:Core/Src/deca_device.c ****  * input parameters
1121:Core/Src/deca_device.c ****  * @param pStsIv - the pointer to the structure of dwt_sts_cp_iv_t type, which holds the IV value t
1122:Core/Src/deca_device.c ****  *
1123:Core/Src/deca_device.c ****  * output parameters
1124:Core/Src/deca_device.c ****  *
1125:Core/Src/deca_device.c ****  * no return value
1126:Core/Src/deca_device.c ****  */
1127:Core/Src/deca_device.c **** void dwt_configurestsiv(dwt_sts_cp_iv_t* pStsIv)
1128:Core/Src/deca_device.c **** {
1129:Core/Src/deca_device.c ****     dwt_write32bitreg(STS_IV0_ID, pStsIv->iv0);
1130:Core/Src/deca_device.c ****     dwt_write32bitreg(STS_IV1_ID, pStsIv->iv1);
1131:Core/Src/deca_device.c ****     dwt_write32bitreg(STS_IV2_ID, pStsIv->iv2);
1132:Core/Src/deca_device.c ****     dwt_write32bitreg(STS_IV3_ID, pStsIv->iv3);
1133:Core/Src/deca_device.c **** }
1134:Core/Src/deca_device.c **** 
1135:Core/Src/deca_device.c **** /*! -----------------------------------------------------------------------------------------------
1136:Core/Src/deca_device.c ****  * @brief This function re-loads the STS initial value
1137:Core/Src/deca_device.c ****  *
1138:Core/Src/deca_device.c ****  * input parameters
1139:Core/Src/deca_device.c ****  *
1140:Core/Src/deca_device.c ****  * output parameters
1141:Core/Src/deca_device.c ****  *
1142:Core/Src/deca_device.c ****  * no return value
1143:Core/Src/deca_device.c ****  */
1144:Core/Src/deca_device.c **** void dwt_configurestsloadiv(void)
1145:Core/Src/deca_device.c **** {
1146:Core/Src/deca_device.c ****     dwt_or8bitoffsetreg(STS_CTRL_ID, 0, STS_CTRL_LOAD_IV_BIT_MASK);
1147:Core/Src/deca_device.c **** }
1148:Core/Src/deca_device.c **** 
1149:Core/Src/deca_device.c **** static
1150:Core/Src/deca_device.c **** uint16_t get_sts_mnth (uint16_t cipher, uint8_t threshold, uint8_t shift_val)
1151:Core/Src/deca_device.c **** {
 128              		.loc 1 1151 1 is_stmt 1 view -0
 129              		.cfi_startproc
 130              		@ args = 0, pretend = 0, frame = 0
 131              		@ frame_needed = 0, uses_anonymous_args = 0
 132              		@ link register save eliminated.
1152:Core/Src/deca_device.c ****     uint32_t  value;
 133              		.loc 1 1152 5 view .LVU36
1153:Core/Src/deca_device.c ****     uint16_t  mod_val;
 134              		.loc 1 1153 5 view .LVU37
1154:Core/Src/deca_device.c **** 
1155:Core/Src/deca_device.c ****     value = cipher* (uint32_t)threshold;
 135              		.loc 1 1155 5 view .LVU38
 136              		.loc 1 1155 11 is_stmt 0 view .LVU39
 137 0000 01FB00F0 		mul	r0, r1, r0
ARM GAS  /tmp/cclDsldr.s 			page 24


 138              	.LVL13:
1156:Core/Src/deca_device.c ****     if (shift_val == 3)
 139              		.loc 1 1156 5 is_stmt 1 view .LVU40
 140              		.loc 1 1156 8 is_stmt 0 view .LVU41
 141 0004 032A     		cmp	r2, #3
 142 0006 0AD0     		beq	.L15
 143              	.LVL14:
 144              	.L13:
1157:Core/Src/deca_device.c ****     {
1158:Core/Src/deca_device.c ****         value *= SQRT_FACTOR;//Factor to sqrt(2)
1159:Core/Src/deca_device.c ****         value >>= SQRT_SHIFT_VAL;
1160:Core/Src/deca_device.c ****     }
1161:Core/Src/deca_device.c **** 
1162:Core/Src/deca_device.c ****     mod_val = value % MOD_VALUE+ HALF_MOD;
 145              		.loc 1 1162 5 is_stmt 1 view .LVU42
 146              		.loc 1 1162 21 is_stmt 0 view .LVU43
 147 0008 C0F30A03 		ubfx	r3, r0, #0, #11
 148              		.loc 1 1162 13 view .LVU44
 149 000c 03F58063 		add	r3, r3, #1024
 150              	.LVL15:
1163:Core/Src/deca_device.c ****     value >>= SHIFT_VALUE;
 151              		.loc 1 1163 5 is_stmt 1 view .LVU45
 152              		.loc 1 1163 11 is_stmt 0 view .LVU46
 153 0010 C00A     		lsrs	r0, r0, #11
 154              	.LVL16:
1164:Core/Src/deca_device.c ****     /* Check if modulo greater than MOD_VALUE, if yes add 1 */
1165:Core/Src/deca_device.c ****     if (mod_val >= MOD_VALUE)
 155              		.loc 1 1165 5 is_stmt 1 view .LVU47
 156              		.loc 1 1165 8 is_stmt 0 view .LVU48
 157 0012 B3F5006F 		cmp	r3, #2048
 158 0016 00D3     		bcc	.L14
1166:Core/Src/deca_device.c ****         value += 1;
 159              		.loc 1 1166 9 is_stmt 1 view .LVU49
 160              		.loc 1 1166 15 is_stmt 0 view .LVU50
 161 0018 0130     		adds	r0, r0, #1
 162              	.LVL17:
 163              	.L14:
1167:Core/Src/deca_device.c **** 
1168:Core/Src/deca_device.c ****     return (uint16_t)value;
 164              		.loc 1 1168 5 is_stmt 1 view .LVU51
1169:Core/Src/deca_device.c **** }
 165              		.loc 1 1169 1 is_stmt 0 view .LVU52
 166 001a 80B2     		uxth	r0, r0
 167              	.LVL18:
 168              		.loc 1 1169 1 view .LVU53
 169 001c 7047     		bx	lr
 170              	.LVL19:
 171              	.L15:
1158:Core/Src/deca_device.c ****         value >>= SQRT_SHIFT_VAL;
 172              		.loc 1 1158 9 is_stmt 1 view .LVU54
1158:Core/Src/deca_device.c ****         value >>= SQRT_SHIFT_VAL;
 173              		.loc 1 1158 15 is_stmt 0 view .LVU55
 174 001e B521     		movs	r1, #181
 175              	.LVL20:
1158:Core/Src/deca_device.c ****         value >>= SQRT_SHIFT_VAL;
 176              		.loc 1 1158 15 view .LVU56
 177 0020 01FB00F0 		mul	r0, r1, r0
ARM GAS  /tmp/cclDsldr.s 			page 25


 178              	.LVL21:
1159:Core/Src/deca_device.c ****     }
 179              		.loc 1 1159 9 is_stmt 1 view .LVU57
1159:Core/Src/deca_device.c ****     }
 180              		.loc 1 1159 15 is_stmt 0 view .LVU58
 181 0024 C009     		lsrs	r0, r0, #7
 182              	.LVL22:
1159:Core/Src/deca_device.c ****     }
 183              		.loc 1 1159 15 view .LVU59
 184 0026 EFE7     		b	.L13
 185              		.cfi_endproc
 186              	.LFE37:
 188              		.section	.text.dwt_apiversion,"ax",%progbits
 189              		.align	1
 190              		.global	dwt_apiversion
 191              		.syntax unified
 192              		.thumb
 193              		.thumb_func
 194              		.fpu fpv4-sp-d16
 196              	dwt_apiversion:
 197              	.LFB0:
 144:Core/Src/deca_device.c ****     return DW3000_DRIVER_VERSION;
 198              		.loc 1 144 1 is_stmt 1 view -0
 199              		.cfi_startproc
 200              		@ args = 0, pretend = 0, frame = 0
 201              		@ frame_needed = 0, uses_anonymous_args = 0
 202              		@ link register save eliminated.
 145:Core/Src/deca_device.c **** }
 203              		.loc 1 145 5 view .LVU61
 146:Core/Src/deca_device.c **** 
 204              		.loc 1 146 1 is_stmt 0 view .LVU62
 205 0000 4FF48020 		mov	r0, #262144
 206 0004 7047     		bx	lr
 207              		.cfi_endproc
 208              	.LFE0:
 210              		.section	.text.dwt_setlocaldataptr,"ax",%progbits
 211              		.align	1
 212              		.global	dwt_setlocaldataptr
 213              		.syntax unified
 214              		.thumb
 215              		.thumb_func
 216              		.fpu fpv4-sp-d16
 218              	dwt_setlocaldataptr:
 219              	.LVL23:
 220              	.LFB1:
 159:Core/Src/deca_device.c ****     // Check the index is within the array bounds
 221              		.loc 1 159 1 is_stmt 1 view -0
 222              		.cfi_startproc
 223              		@ args = 0, pretend = 0, frame = 0
 224              		@ frame_needed = 0, uses_anonymous_args = 0
 225              		@ link register save eliminated.
 161:Core/Src/deca_device.c ****     {
 226              		.loc 1 161 5 view .LVU64
 161:Core/Src/deca_device.c ****     {
 227              		.loc 1 161 8 is_stmt 0 view .LVU65
 228 0000 28B9     		cbnz	r0, .L19
 166:Core/Src/deca_device.c **** 
ARM GAS  /tmp/cclDsldr.s 			page 26


 229              		.loc 1 166 5 is_stmt 1 view .LVU66
 166:Core/Src/deca_device.c **** 
 230              		.loc 1 166 20 is_stmt 0 view .LVU67
 231 0002 044B     		ldr	r3, .L20
 232 0004 03EB8013 		add	r3, r3, r0, lsl #6
 166:Core/Src/deca_device.c **** 
 233              		.loc 1 166 18 view .LVU68
 234 0008 034A     		ldr	r2, .L20+4
 235 000a 1360     		str	r3, [r2]
 168:Core/Src/deca_device.c **** }
 236              		.loc 1 168 5 is_stmt 1 view .LVU69
 168:Core/Src/deca_device.c **** }
 237              		.loc 1 168 12 is_stmt 0 view .LVU70
 238 000c 7047     		bx	lr
 239              	.L19:
 163:Core/Src/deca_device.c ****     }
 240              		.loc 1 163 16 view .LVU71
 241 000e 4FF0FF30 		mov	r0, #-1
 242              	.LVL24:
 169:Core/Src/deca_device.c **** 
 243              		.loc 1 169 1 view .LVU72
 244 0012 7047     		bx	lr
 245              	.L21:
 246              		.align	2
 247              	.L20:
 248 0014 00000000 		.word	.LANCHOR1
 249 0018 00000000 		.word	.LANCHOR2
 250              		.cfi_endproc
 251              	.LFE1:
 253              		.section	.text.dwt_wakeup_ic,"ax",%progbits
 254              		.align	1
 255              		.global	dwt_wakeup_ic
 256              		.syntax unified
 257              		.thumb
 258              		.thumb_func
 259              		.fpu fpv4-sp-d16
 261              	dwt_wakeup_ic:
 262              	.LFB4:
 336:Core/Src/deca_device.c ****     wakeup_device_with_io();
 263              		.loc 1 336 1 is_stmt 1 view -0
 264              		.cfi_startproc
 265              		@ args = 0, pretend = 0, frame = 0
 266              		@ frame_needed = 0, uses_anonymous_args = 0
 267 0000 08B5     		push	{r3, lr}
 268              		.cfi_def_cfa_offset 8
 269              		.cfi_offset 3, -8
 270              		.cfi_offset 14, -4
 337:Core/Src/deca_device.c **** }
 271              		.loc 1 337 5 view .LVU74
 272 0002 FFF7FEFF 		bl	wakeup_device_with_io
 273              	.LVL25:
 338:Core/Src/deca_device.c **** 
 274              		.loc 1 338 1 is_stmt 0 view .LVU75
 275 0006 08BD     		pop	{r3, pc}
 276              		.cfi_endproc
 277              	.LFE4:
 279              		.section	.text.dwt_generatecrc8,"ax",%progbits
ARM GAS  /tmp/cclDsldr.s 			page 27


 280              		.align	1
 281              		.global	dwt_generatecrc8
 282              		.syntax unified
 283              		.thumb
 284              		.thumb_func
 285              		.fpu fpv4-sp-d16
 287              	dwt_generatecrc8:
 288              	.LVL26:
 289              	.LFB16:
 620:Core/Src/deca_device.c ****     uint8_t data;
 290              		.loc 1 620 1 is_stmt 1 view -0
 291              		.cfi_startproc
 292              		@ args = 0, pretend = 0, frame = 0
 293              		@ frame_needed = 0, uses_anonymous_args = 0
 620:Core/Src/deca_device.c ****     uint8_t data;
 294              		.loc 1 620 1 is_stmt 0 view .LVU77
 295 0000 00B5     		push	{lr}
 296              		.cfi_def_cfa_offset 4
 297              		.cfi_offset 14, -4
 298 0002 8646     		mov	lr, r0
 299 0004 1046     		mov	r0, r2
 300              	.LVL27:
 621:Core/Src/deca_device.c ****     int byte;
 301              		.loc 1 621 5 is_stmt 1 view .LVU78
 622:Core/Src/deca_device.c **** 
 302              		.loc 1 622 5 view .LVU79
 627:Core/Src/deca_device.c ****     {
 303              		.loc 1 627 5 view .LVU80
 627:Core/Src/deca_device.c ****     {
 304              		.loc 1 627 15 is_stmt 0 view .LVU81
 305 0006 0023     		movs	r3, #0
 627:Core/Src/deca_device.c ****     {
 306              		.loc 1 627 5 view .LVU82
 307 0008 07E0     		b	.L25
 308              	.LVL28:
 309              	.L26:
 629:Core/Src/deca_device.c ****         crcRemainderInit = crcTable[data];// ^ (crcRemainderInit << 8);
 310              		.loc 1 629 9 is_stmt 1 discriminator 3 view .LVU83
 629:Core/Src/deca_device.c ****         crcRemainderInit = crcTable[data];// ^ (crcRemainderInit << 8);
 311              		.loc 1 629 25 is_stmt 0 discriminator 3 view .LVU84
 312 000a 1EF803C0 		ldrb	ip, [lr, r3]	@ zero_extendqisi2
 629:Core/Src/deca_device.c ****         crcRemainderInit = crcTable[data];// ^ (crcRemainderInit << 8);
 313              		.loc 1 629 14 discriminator 3 view .LVU85
 314 000e 8CEA000C 		eor	ip, ip, r0
 315              	.LVL29:
 630:Core/Src/deca_device.c ****     }
 316              		.loc 1 630 9 is_stmt 1 discriminator 3 view .LVU86
 630:Core/Src/deca_device.c ****     }
 317              		.loc 1 630 26 is_stmt 0 discriminator 3 view .LVU87
 318 0012 044A     		ldr	r2, .L28
 319 0014 12F80C00 		ldrb	r0, [r2, ip]	@ zero_extendqisi2
 320              	.LVL30:
 627:Core/Src/deca_device.c ****     {
 321              		.loc 1 627 32 is_stmt 1 discriminator 3 view .LVU88
 322 0018 0133     		adds	r3, r3, #1
 323              	.LVL31:
 324              	.L25:
ARM GAS  /tmp/cclDsldr.s 			page 28


 627:Core/Src/deca_device.c ****     {
 325              		.loc 1 627 20 discriminator 1 view .LVU89
 627:Core/Src/deca_device.c ****     {
 326              		.loc 1 627 5 is_stmt 0 discriminator 1 view .LVU90
 327 001a 8B42     		cmp	r3, r1
 328 001c F5DB     		blt	.L26
 636:Core/Src/deca_device.c **** }
 329              		.loc 1 636 5 is_stmt 1 view .LVU91
 637:Core/Src/deca_device.c **** 
 330              		.loc 1 637 1 is_stmt 0 view .LVU92
 331 001e 5DF804FB 		ldr	pc, [sp], #4
 332              	.L29:
 333 0022 00BF     		.align	2
 334              	.L28:
 335 0024 00000000 		.word	.LANCHOR0
 336              		.cfi_endproc
 337              	.LFE16:
 339              		.section	.rodata.dwt_xfer3000.str1.4,"aMS",%progbits,1
 340              		.align	2
 341              	.LC0:
 342 0000 6C656E67 		.ascii	"length < 0x3100\000"
 342      7468203C 
 342      20307833 
 342      31303000 
 343              		.align	2
 344              	.LC1:
 345 0010 436F7265 		.ascii	"Core/Src/deca_device.c\000"
 345      2F537263 
 345      2F646563 
 345      615F6465 
 345      76696365 
 346 0027 00       		.align	2
 347              	.LC2:
 348 0028 6D6F6465 		.ascii	"mode == DW3000_SPI_WR_BIT || mode == DW3000_SPI_RD_"
 348      203D3D20 
 348      44573330 
 348      30305F53 
 348      50495F57 
 349 005b 42495420 		.ascii	"BIT || mode == DW3000_SPI_AND_OR_8 || mode == DW300"
 349      7C7C206D 
 349      6F646520 
 349      3D3D2044 
 349      57333030 
 350 008e 305F5350 		.ascii	"0_SPI_AND_OR_16 || mode == DW3000_SPI_AND_OR_32\000"
 350      495F414E 
 350      445F4F52 
 350      5F313620 
 350      7C7C206D 
 351 00be 0000     		.align	2
 352              	.LC3:
 353 00c0 6D6F6465 		.ascii	"mode == DW3000_SPI_WR_BIT\000"
 353      203D3D20 
 353      44573330 
 353      30305F53 
 353      50495F57 
 354              		.section	.text.dwt_xfer3000,"ax",%progbits
 355              		.align	1
ARM GAS  /tmp/cclDsldr.s 			page 29


 356              		.syntax unified
 357              		.thumb
 358              		.thumb_func
 359              		.fpu fpv4-sp-d16
 361              	dwt_xfer3000:
 362              	.LVL32:
 363              	.LFB2:
 192:Core/Src/deca_device.c ****     uint8_t  header[2];           // Buffer to compose header in
 364              		.loc 1 192 1 is_stmt 1 view -0
 365              		.cfi_startproc
 366              		@ args = 4, pretend = 0, frame = 8
 367              		@ frame_needed = 0, uses_anonymous_args = 0
 192:Core/Src/deca_device.c ****     uint8_t  header[2];           // Buffer to compose header in
 368              		.loc 1 192 1 is_stmt 0 view .LVU94
 369 0000 F0B5     		push	{r4, r5, r6, r7, lr}
 370              		.cfi_def_cfa_offset 20
 371              		.cfi_offset 4, -20
 372              		.cfi_offset 5, -16
 373              		.cfi_offset 6, -12
 374              		.cfi_offset 7, -8
 375              		.cfi_offset 14, -4
 376 0002 85B0     		sub	sp, sp, #20
 377              		.cfi_def_cfa_offset 40
 378 0004 0646     		mov	r6, r0
 379 0006 1446     		mov	r4, r2
 380 0008 1D46     		mov	r5, r3
 381 000a BDF82820 		ldrh	r2, [sp, #40]
 382              	.LVL33:
 193:Core/Src/deca_device.c ****     uint16_t cnt = 0;             // Counter for length of a header
 383              		.loc 1 193 5 is_stmt 1 view .LVU95
 194:Core/Src/deca_device.c **** 
 384              		.loc 1 194 5 view .LVU96
 196:Core/Src/deca_device.c ****     uint16_t reg_offset   = 0x7F &  (regFileID + indx);
 385              		.loc 1 196 5 view .LVU97
 196:Core/Src/deca_device.c ****     uint16_t reg_offset   = 0x7F &  (regFileID + indx);
 386              		.loc 1 196 48 is_stmt 0 view .LVU98
 387 000e 0818     		adds	r0, r1, r0
 388              	.LVL34:
 196:Core/Src/deca_device.c ****     uint16_t reg_offset   = 0x7F &  (regFileID + indx);
 389              		.loc 1 196 14 view .LVU99
 390 0010 C0F30440 		ubfx	r0, r0, #16, #5
 391              	.LVL35:
 197:Core/Src/deca_device.c **** 
 392              		.loc 1 197 5 is_stmt 1 view .LVU100
 197:Core/Src/deca_device.c **** 
 393              		.loc 1 197 48 is_stmt 0 view .LVU101
 394 0014 8B19     		adds	r3, r1, r6
 395              	.LVL36:
 199:Core/Src/deca_device.c ****     assert(reg_offset   <= 0x7F);
 396              		.loc 1 199 5 is_stmt 1 view .LVU102
 200:Core/Src/deca_device.c ****     assert(length       < 0x3100);
 397              		.loc 1 200 5 view .LVU103
 201:Core/Src/deca_device.c ****     assert(mode == DW3000_SPI_WR_BIT ||\
 398              		.loc 1 201 5 view .LVU104
 399 0016 B4F5445F 		cmp	r4, #12544
 400 001a 46D2     		bcs	.L44
 401 001c 03F07F03 		and	r3, r3, #127
ARM GAS  /tmp/cclDsldr.s 			page 30


 402              	.LVL37:
 202:Core/Src/deca_device.c ****            mode == DW3000_SPI_RD_BIT ||\
 403              		.loc 1 202 5 view .LVU105
 404 0020 B2F5004F 		cmp	r2, #32768
 405 0024 0CD0     		beq	.L32
 202:Core/Src/deca_device.c ****            mode == DW3000_SPI_RD_BIT ||\
 406              		.loc 1 202 5 is_stmt 0 discriminator 1 view .LVU106
 407 0026 5AB1     		cbz	r2, .L32
 202:Core/Src/deca_device.c ****            mode == DW3000_SPI_RD_BIT ||\
 408              		.loc 1 202 5 discriminator 2 view .LVU107
 409 0028 48F20101 		movw	r1, #32769
 410              	.LVL38:
 202:Core/Src/deca_device.c ****            mode == DW3000_SPI_RD_BIT ||\
 411              		.loc 1 202 5 discriminator 2 view .LVU108
 412 002c 8A42     		cmp	r2, r1
 413 002e 07D0     		beq	.L32
 202:Core/Src/deca_device.c ****            mode == DW3000_SPI_RD_BIT ||\
 414              		.loc 1 202 5 discriminator 3 view .LVU109
 415 0030 48F20201 		movw	r1, #32770
 416 0034 8A42     		cmp	r2, r1
 417 0036 03D0     		beq	.L32
 202:Core/Src/deca_device.c ****            mode == DW3000_SPI_RD_BIT ||\
 418              		.loc 1 202 5 discriminator 4 view .LVU110
 419 0038 48F20301 		movw	r1, #32771
 420 003c 8A42     		cmp	r2, r1
 421 003e 3AD1     		bne	.L45
 422              	.L32:
 209:Core/Src/deca_device.c ****     addr = (reg_file << 9) | (reg_offset << 2);
 423              		.loc 1 209 5 is_stmt 1 view .LVU111
 210:Core/Src/deca_device.c **** 
 424              		.loc 1 210 5 view .LVU112
 210:Core/Src/deca_device.c **** 
 425              		.loc 1 210 42 is_stmt 0 view .LVU113
 426 0040 9900     		lsls	r1, r3, #2
 210:Core/Src/deca_device.c **** 
 427              		.loc 1 210 28 view .LVU114
 428 0042 41EA402C 		orr	ip, r1, r0, lsl #9
 210:Core/Src/deca_device.c **** 
 429              		.loc 1 210 10 view .LVU115
 430 0046 6146     		mov	r1, ip
 431              	.LVL39:
 212:Core/Src/deca_device.c ****     header[1] = (uint8_t)(addr | (mode & 0x03));// & 0xFF; //EAM: subaddr[5:0]+ R/W/AND_OR
 432              		.loc 1 212 5 is_stmt 1 view .LVU116
 212:Core/Src/deca_device.c ****     header[1] = (uint8_t)(addr | (mode & 0x03));// & 0xFF; //EAM: subaddr[5:0]+ R/W/AND_OR
 433              		.loc 1 212 17 is_stmt 0 view .LVU117
 434 0048 1143     		orrs	r1, r1, r2
 435 004a 090A     		lsrs	r1, r1, #8
 212:Core/Src/deca_device.c ****     header[1] = (uint8_t)(addr | (mode & 0x03));// & 0xFF; //EAM: subaddr[5:0]+ R/W/AND_OR
 436              		.loc 1 212 15 view .LVU118
 437 004c 8DF80C10 		strb	r1, [sp, #12]
 213:Core/Src/deca_device.c **** 
 438              		.loc 1 213 5 is_stmt 1 view .LVU119
 213:Core/Src/deca_device.c **** 
 439              		.loc 1 213 40 is_stmt 0 view .LVU120
 440 0050 02F00300 		and	r0, r2, #3
 441              	.LVL40:
 213:Core/Src/deca_device.c **** 
ARM GAS  /tmp/cclDsldr.s 			page 31


 442              		.loc 1 213 32 view .LVU121
 443 0054 40EA0C00 		orr	r0, r0, ip
 213:Core/Src/deca_device.c **** 
 444              		.loc 1 213 15 view .LVU122
 445 0058 8DF80D00 		strb	r0, [sp, #13]
 215:Core/Src/deca_device.c ****     {   /* Fast Access Commands (FAC)
 446              		.loc 1 215 5 is_stmt 1 view .LVU123
 215:Core/Src/deca_device.c ****     {   /* Fast Access Commands (FAC)
 447              		.loc 1 215 8 is_stmt 0 view .LVU124
 448 005c 002C     		cmp	r4, #0
 449 005e 36D1     		bne	.L33
 220:Core/Src/deca_device.c **** 
 450              		.loc 1 220 9 is_stmt 1 view .LVU125
 451 0060 B2F5004F 		cmp	r2, #32768
 452 0064 2DD1     		bne	.L46
 222:Core/Src/deca_device.c ****         cnt = 1;
 453              		.loc 1 222 9 view .LVU126
 222:Core/Src/deca_device.c ****         cnt = 1;
 454              		.loc 1 222 66 is_stmt 0 view .LVU127
 455 0066 7300     		lsls	r3, r6, #1
 222:Core/Src/deca_device.c ****         cnt = 1;
 456              		.loc 1 222 21 view .LVU128
 457 0068 63F07E03 		orn	r3, r3, #126
 222:Core/Src/deca_device.c ****         cnt = 1;
 458              		.loc 1 222 19 view .LVU129
 459 006c 8DF80C30 		strb	r3, [sp, #12]
 223:Core/Src/deca_device.c ****     }
 460              		.loc 1 223 9 is_stmt 1 view .LVU130
 461              	.LVL41:
 223:Core/Src/deca_device.c ****     }
 462              		.loc 1 223 13 is_stmt 0 view .LVU131
 463 0070 0127     		movs	r7, #1
 464              	.LVL42:
 465              	.L35:
 241:Core/Src/deca_device.c ****     {
 466              		.loc 1 241 5 is_stmt 1 view .LVU132
 467 0072 002A     		cmp	r2, #0
 468 0074 41D0     		beq	.L37
 469 0076 82F40041 		eor	r1, r2, #32768
 470 007a 0329     		cmp	r1, #3
 471 007c 64D8     		bhi	.L38
 472              	.LBB4:
 248:Core/Src/deca_device.c ****         if (pdw3000local->spicrc != DWT_SPI_CRC_MODE_NO)
 473              		.loc 1 248 9 view .LVU133
 474              	.LVL43:
 249:Core/Src/deca_device.c ****         {
 475              		.loc 1 249 9 view .LVU134
 249:Core/Src/deca_device.c ****         {
 476              		.loc 1 249 25 is_stmt 0 view .LVU135
 477 007e 334B     		ldr	r3, .L48
 478 0080 1B68     		ldr	r3, [r3]
 479 0082 1B7D     		ldrb	r3, [r3, #20]	@ zero_extendqisi2
 249:Core/Src/deca_device.c ****         {
 480              		.loc 1 249 12 view .LVU136
 481 0084 93B3     		cbz	r3, .L39
 252:Core/Src/deca_device.c ****             crc8 = dwt_generatecrc8(buffer, length, crc8);
 482              		.loc 1 252 13 is_stmt 1 view .LVU137
ARM GAS  /tmp/cclDsldr.s 			page 32


 252:Core/Src/deca_device.c ****             crc8 = dwt_generatecrc8(buffer, length, crc8);
 483              		.loc 1 252 20 is_stmt 0 view .LVU138
 484 0086 0022     		movs	r2, #0
 485 0088 3946     		mov	r1, r7
 486 008a 03A8     		add	r0, sp, #12
 487 008c FFF7FEFF 		bl	dwt_generatecrc8
 488              	.LVL44:
 252:Core/Src/deca_device.c ****             crc8 = dwt_generatecrc8(buffer, length, crc8);
 489              		.loc 1 252 20 view .LVU139
 490 0090 0246     		mov	r2, r0
 491              	.LVL45:
 253:Core/Src/deca_device.c **** 
 492              		.loc 1 253 13 is_stmt 1 view .LVU140
 253:Core/Src/deca_device.c **** 
 493              		.loc 1 253 20 is_stmt 0 view .LVU141
 494 0092 2146     		mov	r1, r4
 495 0094 2846     		mov	r0, r5
 496 0096 FFF7FEFF 		bl	dwt_generatecrc8
 497              	.LVL46:
 256:Core/Src/deca_device.c ****         }
 498              		.loc 1 256 13 is_stmt 1 view .LVU142
 499 009a 0090     		str	r0, [sp]
 500 009c 2B46     		mov	r3, r5
 501 009e 2246     		mov	r2, r4
 502 00a0 03A9     		add	r1, sp, #12
 503 00a2 3846     		mov	r0, r7
 504              	.LVL47:
 256:Core/Src/deca_device.c ****         }
 505              		.loc 1 256 13 is_stmt 0 view .LVU143
 506 00a4 FFF7FEFF 		bl	writetospiwithcrc
 507              	.LVL48:
 508 00a8 32E0     		b	.L30
 509              	.LVL49:
 510              	.L44:
 256:Core/Src/deca_device.c ****         }
 511              		.loc 1 256 13 view .LVU144
 512              	.LBE4:
 201:Core/Src/deca_device.c ****     assert(mode == DW3000_SPI_WR_BIT ||\
 513              		.loc 1 201 5 discriminator 1 view .LVU145
 514 00aa 294B     		ldr	r3, .L48+4
 515              	.LVL50:
 201:Core/Src/deca_device.c ****     assert(mode == DW3000_SPI_WR_BIT ||\
 516              		.loc 1 201 5 discriminator 1 view .LVU146
 517 00ac 294A     		ldr	r2, .L48+8
 518 00ae C921     		movs	r1, #201
 519              	.LVL51:
 201:Core/Src/deca_device.c ****     assert(mode == DW3000_SPI_WR_BIT ||\
 520              		.loc 1 201 5 discriminator 1 view .LVU147
 521 00b0 2948     		ldr	r0, .L48+12
 522              	.LVL52:
 201:Core/Src/deca_device.c ****     assert(mode == DW3000_SPI_WR_BIT ||\
 523              		.loc 1 201 5 discriminator 1 view .LVU148
 524 00b2 FFF7FEFF 		bl	__assert_func
 525              	.LVL53:
 526              	.L45:
 202:Core/Src/deca_device.c ****            mode == DW3000_SPI_RD_BIT ||\
 527              		.loc 1 202 5 discriminator 5 view .LVU149
ARM GAS  /tmp/cclDsldr.s 			page 33


 528 00b6 294B     		ldr	r3, .L48+16
 529 00b8 264A     		ldr	r2, .L48+8
 530 00ba CA21     		movs	r1, #202
 531 00bc 2648     		ldr	r0, .L48+12
 532              	.LVL54:
 202:Core/Src/deca_device.c ****            mode == DW3000_SPI_RD_BIT ||\
 533              		.loc 1 202 5 discriminator 5 view .LVU150
 534 00be FFF7FEFF 		bl	__assert_func
 535              	.LVL55:
 536              	.L46:
 220:Core/Src/deca_device.c **** 
 537              		.loc 1 220 9 discriminator 1 view .LVU151
 538 00c2 274B     		ldr	r3, .L48+20
 539 00c4 234A     		ldr	r2, .L48+8
 540 00c6 DC21     		movs	r1, #220
 541 00c8 2348     		ldr	r0, .L48+12
 542 00ca FFF7FEFF 		bl	__assert_func
 543              	.LVL56:
 544              	.L33:
 225:Core/Src/deca_device.c ****     {   /* Fast Access Commands with Read/Write support (FACRW)
 545              		.loc 1 225 10 is_stmt 1 view .LVU152
 225:Core/Src/deca_device.c ****     {   /* Fast Access Commands with Read/Write support (FACRW)
 546              		.loc 1 225 13 is_stmt 0 view .LVU153
 547 00ce 1BB9     		cbnz	r3, .L36
 225:Core/Src/deca_device.c ****     {   /* Fast Access Commands with Read/Write support (FACRW)
 548              		.loc 1 225 48 discriminator 1 view .LVU154
 549 00d0 B2F5004F 		cmp	r2, #32768
 550 00d4 06D0     		beq	.L41
 225:Core/Src/deca_device.c ****     {   /* Fast Access Commands with Read/Write support (FACRW)
 551              		.loc 1 225 78 discriminator 2 view .LVU155
 552 00d6 3AB1     		cbz	r2, .L42
 553              	.L36:
 237:Core/Src/deca_device.c ****         cnt = 2;
 554              		.loc 1 237 9 is_stmt 1 view .LVU156
 237:Core/Src/deca_device.c ****         cnt = 2;
 555              		.loc 1 237 19 is_stmt 0 view .LVU157
 556 00d8 41F04001 		orr	r1, r1, #64
 557 00dc 8DF80C10 		strb	r1, [sp, #12]
 238:Core/Src/deca_device.c ****     }
 558              		.loc 1 238 9 is_stmt 1 view .LVU158
 559              	.LVL57:
 238:Core/Src/deca_device.c ****     }
 560              		.loc 1 238 13 is_stmt 0 view .LVU159
 561 00e0 0227     		movs	r7, #2
 562 00e2 C6E7     		b	.L35
 563              	.LVL58:
 564              	.L41:
 230:Core/Src/deca_device.c ****     }
 565              		.loc 1 230 13 view .LVU160
 566 00e4 0127     		movs	r7, #1
 567 00e6 C4E7     		b	.L35
 568              	.L42:
 569 00e8 0127     		movs	r7, #1
 570 00ea C2E7     		b	.L35
 571              	.LVL59:
 572              	.L39:
 573              	.LBB5:
ARM GAS  /tmp/cclDsldr.s 			page 34


 261:Core/Src/deca_device.c ****         }
 574              		.loc 1 261 13 is_stmt 1 view .LVU161
 575 00ec 2B46     		mov	r3, r5
 576 00ee 2246     		mov	r2, r4
 577 00f0 03A9     		add	r1, sp, #12
 578 00f2 3846     		mov	r0, r7
 579 00f4 FFF7FEFF 		bl	writetospi
 580              	.LVL60:
 261:Core/Src/deca_device.c ****         }
 581              		.loc 1 261 13 is_stmt 0 view .LVU162
 582 00f8 0AE0     		b	.L30
 583              	.LVL61:
 584              	.L37:
 261:Core/Src/deca_device.c ****         }
 585              		.loc 1 261 13 view .LVU163
 586              	.LBE5:
 267:Core/Src/deca_device.c **** 
 587              		.loc 1 267 13 is_stmt 1 view .LVU164
 588 00fa 2B46     		mov	r3, r5
 589 00fc 2246     		mov	r2, r4
 590 00fe 03A9     		add	r1, sp, #12
 591 0100 3846     		mov	r0, r7
 592 0102 FFF7FEFF 		bl	readfromspi
 593              	.LVL62:
 271:Core/Src/deca_device.c ****             {
 594              		.loc 1 271 13 view .LVU165
 271:Core/Src/deca_device.c ****             {
 595              		.loc 1 271 30 is_stmt 0 view .LVU166
 596 0106 114B     		ldr	r3, .L48
 597 0108 1B68     		ldr	r3, [r3]
 598 010a 1B7D     		ldrb	r3, [r3, #20]	@ zero_extendqisi2
 271:Core/Src/deca_device.c ****             {
 599              		.loc 1 271 16 view .LVU167
 600 010c 022B     		cmp	r3, #2
 601 010e 01D0     		beq	.L47
 602              	.L30:
 297:Core/Src/deca_device.c **** 
 603              		.loc 1 297 1 view .LVU168
 604 0110 05B0     		add	sp, sp, #20
 605              		.cfi_remember_state
 606              		.cfi_def_cfa_offset 20
 607              		@ sp needed
 608 0112 F0BD     		pop	{r4, r5, r6, r7, pc}
 609              	.LVL63:
 610              	.L47:
 611              		.cfi_restore_state
 271:Core/Src/deca_device.c ****             {
 612              		.loc 1 271 65 discriminator 1 view .LVU169
 613 0114 182E     		cmp	r6, #24
 614 0116 FBD0     		beq	.L30
 615              	.LBB6:
 273:Core/Src/deca_device.c ****                 //generate 8 bit CRC from the read data
 616              		.loc 1 273 17 is_stmt 1 view .LVU170
 275:Core/Src/deca_device.c ****                 crc8 = dwt_generatecrc8(buffer, length, crc8);
 617              		.loc 1 275 17 view .LVU171
 275:Core/Src/deca_device.c ****                 crc8 = dwt_generatecrc8(buffer, length, crc8);
 618              		.loc 1 275 24 is_stmt 0 view .LVU172
ARM GAS  /tmp/cclDsldr.s 			page 35


 619 0118 0022     		movs	r2, #0
 620 011a 3946     		mov	r1, r7
 621 011c 03A8     		add	r0, sp, #12
 622 011e FFF7FEFF 		bl	dwt_generatecrc8
 623              	.LVL64:
 624 0122 0246     		mov	r2, r0
 625              	.LVL65:
 276:Core/Src/deca_device.c **** 
 626              		.loc 1 276 17 is_stmt 1 view .LVU173
 276:Core/Src/deca_device.c **** 
 627              		.loc 1 276 24 is_stmt 0 view .LVU174
 628 0124 2146     		mov	r1, r4
 629 0126 2846     		mov	r0, r5
 630 0128 FFF7FEFF 		bl	dwt_generatecrc8
 631              	.LVL66:
 276:Core/Src/deca_device.c **** 
 632              		.loc 1 276 24 view .LVU175
 633 012c 0446     		mov	r4, r0
 634              	.LVL67:
 279:Core/Src/deca_device.c **** 
 635              		.loc 1 279 17 is_stmt 1 view .LVU176
 279:Core/Src/deca_device.c **** 
 636              		.loc 1 279 26 is_stmt 0 view .LVU177
 637 012e 0021     		movs	r1, #0
 638 0130 1820     		movs	r0, #24
 639 0132 FFF7FEFF 		bl	dwt_read8bitoffsetreg
 640              	.LVL68:
 283:Core/Src/deca_device.c ****                 {
 641              		.loc 1 283 17 is_stmt 1 view .LVU178
 283:Core/Src/deca_device.c ****                 {
 642              		.loc 1 283 20 is_stmt 0 view .LVU179
 643 0136 8442     		cmp	r4, r0
 644 0138 EAD0     		beq	.L30
 285:Core/Src/deca_device.c ****                         pdw3000local->cbSPIRDErr();
 645              		.loc 1 285 21 is_stmt 1 view .LVU180
 285:Core/Src/deca_device.c ****                         pdw3000local->cbSPIRDErr();
 646              		.loc 1 285 37 is_stmt 0 view .LVU181
 647 013a 044B     		ldr	r3, .L48
 648 013c 1B68     		ldr	r3, [r3]
 649 013e 5B6A     		ldr	r3, [r3, #36]
 285:Core/Src/deca_device.c ****                         pdw3000local->cbSPIRDErr();
 650              		.loc 1 285 24 view .LVU182
 651 0140 002B     		cmp	r3, #0
 652 0142 E5D0     		beq	.L30
 286:Core/Src/deca_device.c ****                 }
 653              		.loc 1 286 25 is_stmt 1 view .LVU183
 654 0144 9847     		blx	r3
 655              	.LVL69:
 286:Core/Src/deca_device.c ****                 }
 656              		.loc 1 286 25 is_stmt 0 view .LVU184
 657 0146 E3E7     		b	.L30
 658              	.LVL70:
 659              	.L38:
 286:Core/Src/deca_device.c ****                 }
 660              		.loc 1 286 25 view .LVU185
 661              	.LBE6:
 293:Core/Src/deca_device.c ****         break;
ARM GAS  /tmp/cclDsldr.s 			page 36


 662              		.loc 1 293 9 is_stmt 1 discriminator 1 view .LVU186
 293:Core/Src/deca_device.c ****         break;
 663              		.loc 1 293 17 discriminator 1 view .LVU187
 293:Core/Src/deca_device.c ****         break;
 664              		.loc 1 293 14 discriminator 1 view .LVU188
 665 0148 FEE7     		b	.L38
 666              	.L49:
 667 014a 00BF     		.align	2
 668              	.L48:
 669 014c 00000000 		.word	.LANCHOR2
 670 0150 00000000 		.word	.LC0
 671 0154 00000000 		.word	.LANCHOR3
 672 0158 10000000 		.word	.LC1
 673 015c 28000000 		.word	.LC2
 674 0160 C0000000 		.word	.LC3
 675              		.cfi_endproc
 676              	.LFE2:
 678              		.section	.text.dwt_writetodevice,"ax",%progbits
 679              		.align	1
 680              		.global	dwt_writetodevice
 681              		.syntax unified
 682              		.thumb
 683              		.thumb_func
 684              		.fpu fpv4-sp-d16
 686              	dwt_writetodevice:
 687              	.LVL71:
 688              	.LFB3:
 320:Core/Src/deca_device.c ****     dwt_xfer3000(regFileID, index, length, buffer, DW3000_SPI_WR_BIT);
 689              		.loc 1 320 1 view -0
 690              		.cfi_startproc
 691              		@ args = 0, pretend = 0, frame = 0
 692              		@ frame_needed = 0, uses_anonymous_args = 0
 320:Core/Src/deca_device.c ****     dwt_xfer3000(regFileID, index, length, buffer, DW3000_SPI_WR_BIT);
 693              		.loc 1 320 1 is_stmt 0 view .LVU190
 694 0000 10B5     		push	{r4, lr}
 695              		.cfi_def_cfa_offset 8
 696              		.cfi_offset 4, -8
 697              		.cfi_offset 14, -4
 698 0002 82B0     		sub	sp, sp, #8
 699              		.cfi_def_cfa_offset 16
 321:Core/Src/deca_device.c **** }
 700              		.loc 1 321 5 is_stmt 1 view .LVU191
 701 0004 4FF40044 		mov	r4, #32768
 702 0008 0094     		str	r4, [sp]
 703 000a FFF7FEFF 		bl	dwt_xfer3000
 704              	.LVL72:
 322:Core/Src/deca_device.c **** 
 705              		.loc 1 322 1 is_stmt 0 view .LVU192
 706 000e 02B0     		add	sp, sp, #8
 707              		.cfi_def_cfa_offset 8
 708              		@ sp needed
 709 0010 10BD     		pop	{r4, pc}
 710              		.cfi_endproc
 711              	.LFE3:
 713              		.section	.text.dwt_write32bitoffsetreg,"ax",%progbits
 714              		.align	1
 715              		.global	dwt_write32bitoffsetreg
ARM GAS  /tmp/cclDsldr.s 			page 37


 716              		.syntax unified
 717              		.thumb
 718              		.thumb_func
 719              		.fpu fpv4-sp-d16
 721              	dwt_write32bitoffsetreg:
 722              	.LVL73:
 723              	.LFB9:
 448:Core/Src/deca_device.c ****     int     j ;
 724              		.loc 1 448 1 is_stmt 1 view -0
 725              		.cfi_startproc
 726              		@ args = 0, pretend = 0, frame = 8
 727              		@ frame_needed = 0, uses_anonymous_args = 0
 448:Core/Src/deca_device.c ****     int     j ;
 728              		.loc 1 448 1 is_stmt 0 view .LVU194
 729 0000 00B5     		push	{lr}
 730              		.cfi_def_cfa_offset 4
 731              		.cfi_offset 14, -4
 732 0002 83B0     		sub	sp, sp, #12
 733              		.cfi_def_cfa_offset 16
 449:Core/Src/deca_device.c ****     uint8_t   buffer[4] ;
 734              		.loc 1 449 5 is_stmt 1 view .LVU195
 450:Core/Src/deca_device.c **** 
 735              		.loc 1 450 5 view .LVU196
 452:Core/Src/deca_device.c ****     {
 736              		.loc 1 452 5 view .LVU197
 737              	.LVL74:
 452:Core/Src/deca_device.c ****     {
 738              		.loc 1 452 13 is_stmt 0 view .LVU198
 739 0004 0023     		movs	r3, #0
 452:Core/Src/deca_device.c ****     {
 740              		.loc 1 452 5 view .LVU199
 741 0006 06E0     		b	.L53
 742              	.LVL75:
 743              	.L54:
 454:Core/Src/deca_device.c ****         regval >>= 8 ;
 744              		.loc 1 454 9 is_stmt 1 discriminator 3 view .LVU200
 454:Core/Src/deca_device.c ****         regval >>= 8 ;
 745              		.loc 1 454 19 is_stmt 0 discriminator 3 view .LVU201
 746 0008 03F1080C 		add	ip, r3, #8
 747 000c EC44     		add	ip, sp, ip
 748 000e 0CF8042C 		strb	r2, [ip, #-4]
 455:Core/Src/deca_device.c ****     }
 749              		.loc 1 455 9 is_stmt 1 discriminator 3 view .LVU202
 455:Core/Src/deca_device.c ****     }
 750              		.loc 1 455 16 is_stmt 0 discriminator 3 view .LVU203
 751 0012 120A     		lsrs	r2, r2, #8
 752              	.LVL76:
 452:Core/Src/deca_device.c ****     {
 753              		.loc 1 452 27 is_stmt 1 discriminator 3 view .LVU204
 452:Core/Src/deca_device.c ****     {
 754              		.loc 1 452 28 is_stmt 0 discriminator 3 view .LVU205
 755 0014 0133     		adds	r3, r3, #1
 756              	.LVL77:
 757              	.L53:
 452:Core/Src/deca_device.c ****     {
 758              		.loc 1 452 19 is_stmt 1 discriminator 1 view .LVU206
 452:Core/Src/deca_device.c ****     {
ARM GAS  /tmp/cclDsldr.s 			page 38


 759              		.loc 1 452 5 is_stmt 0 discriminator 1 view .LVU207
 760 0016 032B     		cmp	r3, #3
 761 0018 F6DD     		ble	.L54
 458:Core/Src/deca_device.c **** } // end dwt_write32bitoffsetreg()
 762              		.loc 1 458 5 is_stmt 1 view .LVU208
 763 001a 01AB     		add	r3, sp, #4
 764              	.LVL78:
 458:Core/Src/deca_device.c **** } // end dwt_write32bitoffsetreg()
 765              		.loc 1 458 5 is_stmt 0 view .LVU209
 766 001c 0422     		movs	r2, #4
 767              	.LVL79:
 458:Core/Src/deca_device.c **** } // end dwt_write32bitoffsetreg()
 768              		.loc 1 458 5 view .LVU210
 769 001e 89B2     		uxth	r1, r1
 770              	.LVL80:
 458:Core/Src/deca_device.c **** } // end dwt_write32bitoffsetreg()
 771              		.loc 1 458 5 view .LVU211
 772 0020 FFF7FEFF 		bl	dwt_writetodevice
 773              	.LVL81:
 459:Core/Src/deca_device.c **** 
 774              		.loc 1 459 1 view .LVU212
 775 0024 03B0     		add	sp, sp, #12
 776              		.cfi_def_cfa_offset 4
 777              		@ sp needed
 778 0026 5DF804FB 		ldr	pc, [sp], #4
 779              		.cfi_endproc
 780              	.LFE9:
 782              		.section	.text.dwt_disable_rftx_blocks,"ax",%progbits
 783              		.align	1
 784              		.syntax unified
 785              		.thumb
 786              		.thumb_func
 787              		.fpu fpv4-sp-d16
 789              	dwt_disable_rftx_blocks:
 790              	.LFB120:
1170:Core/Src/deca_device.c **** 
1171:Core/Src/deca_device.c **** /*! -----------------------------------------------------------------------------------------------
1172:Core/Src/deca_device.c ****  * @brief This function sets the default values of the lookup tables depending on the channel selec
1173:Core/Src/deca_device.c ****  *
1174:Core/Src/deca_device.c ****  * input parameters
1175:Core/Src/deca_device.c ****  * @param[in] channel - Channel that the device will be transmitting/receiving on.
1176:Core/Src/deca_device.c ****  *
1177:Core/Src/deca_device.c ****  * no return value
1178:Core/Src/deca_device.c ****  */
1179:Core/Src/deca_device.c **** void dwt_configmrxlut(int channel)
1180:Core/Src/deca_device.c **** {
1181:Core/Src/deca_device.c **** 	uint32_t lut0, lut1, lut2, lut3, lut4, lut5, lut6 = 0;
1182:Core/Src/deca_device.c **** 
1183:Core/Src/deca_device.c ****     if (channel == 5)
1184:Core/Src/deca_device.c ****     {
1185:Core/Src/deca_device.c ****         lut0 = (uint32_t)CH5_DGC_LUT_0;
1186:Core/Src/deca_device.c ****         lut1 = (uint32_t)CH5_DGC_LUT_1;
1187:Core/Src/deca_device.c ****         lut2 = (uint32_t)CH5_DGC_LUT_2;
1188:Core/Src/deca_device.c ****         lut3 = (uint32_t)CH5_DGC_LUT_3;
1189:Core/Src/deca_device.c ****         lut4 = (uint32_t)CH5_DGC_LUT_4;
1190:Core/Src/deca_device.c ****         lut5 = (uint32_t)CH5_DGC_LUT_5;
1191:Core/Src/deca_device.c ****         lut6 = (uint32_t)CH5_DGC_LUT_6;
ARM GAS  /tmp/cclDsldr.s 			page 39


1192:Core/Src/deca_device.c ****     }
1193:Core/Src/deca_device.c ****     else
1194:Core/Src/deca_device.c ****     {
1195:Core/Src/deca_device.c ****         lut0 = (uint32_t)CH9_DGC_LUT_0;
1196:Core/Src/deca_device.c ****         lut1 = (uint32_t)CH9_DGC_LUT_1;
1197:Core/Src/deca_device.c ****         lut2 = (uint32_t)CH9_DGC_LUT_2;
1198:Core/Src/deca_device.c ****         lut3 = (uint32_t)CH9_DGC_LUT_3;
1199:Core/Src/deca_device.c ****         lut4 = (uint32_t)CH9_DGC_LUT_4;
1200:Core/Src/deca_device.c ****         lut5 = (uint32_t)CH9_DGC_LUT_5;
1201:Core/Src/deca_device.c ****         lut6 = (uint32_t)CH9_DGC_LUT_6;
1202:Core/Src/deca_device.c ****     }
1203:Core/Src/deca_device.c ****     dwt_write32bitoffsetreg(DGC_LUT_0_CFG_ID, 0x0, lut0);
1204:Core/Src/deca_device.c ****     dwt_write32bitoffsetreg(DGC_LUT_1_CFG_ID, 0x0, lut1);
1205:Core/Src/deca_device.c ****     dwt_write32bitoffsetreg(DGC_LUT_2_CFG_ID, 0x0, lut2);
1206:Core/Src/deca_device.c ****     dwt_write32bitoffsetreg(DGC_LUT_3_CFG_ID, 0x0, lut3);
1207:Core/Src/deca_device.c ****     dwt_write32bitoffsetreg(DGC_LUT_4_CFG_ID, 0x0, lut4);
1208:Core/Src/deca_device.c ****     dwt_write32bitoffsetreg(DGC_LUT_5_CFG_ID, 0x0, lut5);
1209:Core/Src/deca_device.c ****     dwt_write32bitoffsetreg(DGC_LUT_6_CFG_ID, 0x0, lut6);
1210:Core/Src/deca_device.c ****     dwt_write32bitoffsetreg(DGC_CFG0_ID, 0x0, DWT_DGC_CFG0);
1211:Core/Src/deca_device.c ****     dwt_write32bitoffsetreg(DGC_CFG1_ID, 0x0, DWT_DGC_CFG1);
1212:Core/Src/deca_device.c **** }
1213:Core/Src/deca_device.c **** 
1214:Core/Src/deca_device.c **** /*! -----------------------------------------------------------------------------------------------
1215:Core/Src/deca_device.c ****  * @brief This function needs to be called after device is woken up from DEEPSLEEP/SLEEP state, to 
1216:Core/Src/deca_device.c ****  * configuration which has not been automatically restored from AON
1217:Core/Src/deca_device.c ****  *
1218:Core/Src/deca_device.c ****  * input parameters
1219:Core/Src/deca_device.c ****  *
1220:Core/Src/deca_device.c ****  * return DWT_SUCCESS
1221:Core/Src/deca_device.c ****  *
1222:Core/Src/deca_device.c ****  */
1223:Core/Src/deca_device.c **** void dwt_restoreconfig(void)
1224:Core/Src/deca_device.c **** {
1225:Core/Src/deca_device.c ****     uint8_t channel = 5;
1226:Core/Src/deca_device.c ****     uint16_t chan_ctrl;
1227:Core/Src/deca_device.c **** 
1228:Core/Src/deca_device.c ****     if (pdw3000local->bias_tune != 0)
1229:Core/Src/deca_device.c ****     {
1230:Core/Src/deca_device.c ****         _dwt_prog_ldo_and_bias_tune();
1231:Core/Src/deca_device.c ****     }
1232:Core/Src/deca_device.c ****     dwt_write8bitoffsetreg(LDO_RLOAD_ID, 1, LDO_RLOAD_VAL_B1);
1233:Core/Src/deca_device.c ****     /*Restoring indirect access register B configuration as this is not preserved when device is in
1234:Core/Src/deca_device.c ****      * Indirect access register B is configured to point to the "Double buffer diagnostic SET 2"*/
1235:Core/Src/deca_device.c ****     dwt_write32bitreg(INDIRECT_ADDR_B_ID, (BUF1_RX_FINFO >> 16));
1236:Core/Src/deca_device.c ****     dwt_write32bitreg(ADDR_OFFSET_B_ID, BUF1_RX_FINFO & 0xffff);
1237:Core/Src/deca_device.c **** 
1238:Core/Src/deca_device.c ****     /* Restore OPS table configuration */
1239:Core/Src/deca_device.c ****     _dwt_kick_ops_table_on_wakeup();
1240:Core/Src/deca_device.c **** 
1241:Core/Src/deca_device.c ****     chan_ctrl = dwt_read16bitoffsetreg(CHAN_CTRL_ID, 0);
1242:Core/Src/deca_device.c **** 
1243:Core/Src/deca_device.c ****     //assume RX code is the same as TX (e.g. we will not RX on 16 MHz or SCP and TX on 64 MHz)
1244:Core/Src/deca_device.c ****     if( (((chan_ctrl>> CHAN_CTRL_TX_PCODE_BIT_OFFSET)&CHAN_CTRL_TX_PCODE_BIT_MASK) >= 9) && (((chan
1245:Core/Src/deca_device.c ****     {
1246:Core/Src/deca_device.c ****         if (chan_ctrl & 0x1)
1247:Core/Src/deca_device.c ****         {
1248:Core/Src/deca_device.c ****             channel = 9;
ARM GAS  /tmp/cclDsldr.s 			page 40


1249:Core/Src/deca_device.c ****         }
1250:Core/Src/deca_device.c **** 
1251:Core/Src/deca_device.c ****         /* If the OTP has DGC info programmed into it, do a manual kick from OTP. */
1252:Core/Src/deca_device.c ****         if (pdw3000local->dgc_otp_set == DWT_DGC_LOAD_FROM_OTP)
1253:Core/Src/deca_device.c ****         {
1254:Core/Src/deca_device.c ****             _dwt_kick_dgc_on_wakeup(channel);
1255:Core/Src/deca_device.c ****         }
1256:Core/Src/deca_device.c ****         /* Else we manually program hard-coded values into the DGC registers. */
1257:Core/Src/deca_device.c ****         else
1258:Core/Src/deca_device.c ****         {
1259:Core/Src/deca_device.c ****             dwt_configmrxlut(channel);
1260:Core/Src/deca_device.c ****         }
1261:Core/Src/deca_device.c ****     }
1262:Core/Src/deca_device.c **** }
1263:Core/Src/deca_device.c **** 
1264:Core/Src/deca_device.c **** /*! -----------------------------------------------------------------------------------------------
1265:Core/Src/deca_device.c ****  * @brief This function configures STS mode: e.g. DWT_STS_MODE_OFF, DWT_STS_MODE_1 etc
1266:Core/Src/deca_device.c ****  * The dwt_configure should be called prior to this to configure other parameters
1267:Core/Src/deca_device.c ****  *
1268:Core/Src/deca_device.c ****  * input parameters
1269:Core/Src/deca_device.c ****  * @param stsMode    -   e.g. DWT_STS_MODE_OFF, DWT_STS_MODE_1 etc.
1270:Core/Src/deca_device.c ****  *
1271:Core/Src/deca_device.c ****  * return DWT_SUCCESS
1272:Core/Src/deca_device.c ****  *
1273:Core/Src/deca_device.c ****  */
1274:Core/Src/deca_device.c **** void dwt_configurestsmode(uint8_t stsMode)
1275:Core/Src/deca_device.c **** {
1276:Core/Src/deca_device.c **** 
1277:Core/Src/deca_device.c ****     pdw3000local->stsconfig = stsMode;
1278:Core/Src/deca_device.c **** 
1279:Core/Src/deca_device.c ****     /////////////////////////////////////////////////////////////////////////
1280:Core/Src/deca_device.c ****     //SYS_CFG
1281:Core/Src/deca_device.c ****     //clear the PHR Mode, PHR Rate, STS Protocol, SDC, PDOA Mode,
1282:Core/Src/deca_device.c ****     //then set the relevant bits according to configuration of the PHR Mode, PHR Rate, STS Protocol
1283:Core/Src/deca_device.c ****     dwt_modify32bitoffsetreg(SYS_CFG_ID, 0, ~(SYS_CFG_CP_SPC_BIT_MASK | SYS_CFG_CP_SDC_BIT_MASK),
1284:Core/Src/deca_device.c ****         ((uint16_t)stsMode & DWT_STS_CONFIG_MASK) << SYS_CFG_CP_SPC_BIT_OFFSET);
1285:Core/Src/deca_device.c **** 
1286:Core/Src/deca_device.c ****     if((stsMode & DWT_STS_MODE_ND) == DWT_STS_MODE_ND)
1287:Core/Src/deca_device.c ****     {
1288:Core/Src/deca_device.c ****         //configure lower preamble detection threshold for no data STS mode
1289:Core/Src/deca_device.c ****         dwt_write32bitoffsetreg(DTUNE3_ID, 0, PD_THRESH_NO_DATA);
1290:Core/Src/deca_device.c ****     }
1291:Core/Src/deca_device.c ****     else
1292:Core/Src/deca_device.c ****     {
1293:Core/Src/deca_device.c ****         dwt_write32bitoffsetreg(DTUNE3_ID, 0, PD_THRESH_DEFAULT);
1294:Core/Src/deca_device.c ****     }
1295:Core/Src/deca_device.c **** }
1296:Core/Src/deca_device.c **** 
1297:Core/Src/deca_device.c **** /*! -----------------------------------------------------------------------------------------------
1298:Core/Src/deca_device.c ****  * @brief This function provides the main API for the configuration of the
1299:Core/Src/deca_device.c ****  * DW3000 and this low-level driver.  The input is a pointer to the data structure
1300:Core/Src/deca_device.c ****  * of type dwt_config_t that holds all the configurable items.
1301:Core/Src/deca_device.c ****  * The dwt_config_t structure shows which ones are supported
1302:Core/Src/deca_device.c ****  *
1303:Core/Src/deca_device.c ****  * input parameters
1304:Core/Src/deca_device.c ****  * @param config    -   pointer to the configuration structure, which contains the device configura
1305:Core/Src/deca_device.c ****  *
ARM GAS  /tmp/cclDsldr.s 			page 41


1306:Core/Src/deca_device.c ****  * return DWT_SUCCESS or DWT_ERROR
1307:Core/Src/deca_device.c ****  * Note: If the RX calibration routine fails the device receiver performance will be severely affec
1308:Core/Src/deca_device.c ****  * the application should reset device and try again
1309:Core/Src/deca_device.c ****  *
1310:Core/Src/deca_device.c ****  */
1311:Core/Src/deca_device.c **** int dwt_configure(dwt_config_t *config)
1312:Core/Src/deca_device.c **** {
1313:Core/Src/deca_device.c ****     uint8_t chan = config->chan,cnt,flag;
1314:Core/Src/deca_device.c ****     uint32_t temp;
1315:Core/Src/deca_device.c ****     uint8_t scp = ((config->rxCode > 24) || (config->txCode > 24)) ? 1 : 0;
1316:Core/Src/deca_device.c ****     uint8_t mode = (config->phrMode == DWT_PHRMODE_EXT) ? SYS_CFG_PHR_MODE_BIT_MASK : 0;
1317:Core/Src/deca_device.c ****     uint16_t sts_len;
1318:Core/Src/deca_device.c ****     int error = DWT_SUCCESS;
1319:Core/Src/deca_device.c **** 
1320:Core/Src/deca_device.c **** 
1321:Core/Src/deca_device.c **** #ifdef DWT_API_ERROR_CHECK
1322:Core/Src/deca_device.c ****     assert((config->dataRate == DWT_BR_6M8) || (config->dataRate == DWT_BR_850K));
1323:Core/Src/deca_device.c ****     assert(config->rxPAC <= DWT_PAC4);
1324:Core/Src/deca_device.c ****     assert((chan == 5) || (chan == 9));
1325:Core/Src/deca_device.c ****     assert((config->txPreambLength == DWT_PLEN_32) || (config->txPreambLength == DWT_PLEN_64) || (c
1326:Core/Src/deca_device.c ****            || (config->txPreambLength == DWT_PLEN_512) || (config->txPreambLength == DWT_PLEN_1024)
1327:Core/Src/deca_device.c ****            || (config->txPreambLength == DWT_PLEN_2048) || (config->txPreambLength == DWT_PLEN_4096
1328:Core/Src/deca_device.c ****     assert((config->phrMode == DWT_PHRMODE_STD) || (config->phrMode == DWT_PHRMODE_EXT));
1329:Core/Src/deca_device.c ****     assert((config->phrRate == DWT_PHRRATE_STD) || (config->phrRate == DWT_PHRRATE_DTA));
1330:Core/Src/deca_device.c ****     assert((config->pdoaMode == DWT_PDOA_M0) || (config->pdoaMode == DWT_PDOA_M1) || (config->pdoaM
1331:Core/Src/deca_device.c **** 	assert(((config->stsMode & DWT_STS_CONFIG_MASK) == DWT_STS_MODE_OFF) 
1332:Core/Src/deca_device.c ****         || ((config->stsMode & DWT_STS_CONFIG_MASK) == DWT_STS_MODE_1) 
1333:Core/Src/deca_device.c ****         || ((config->stsMode & DWT_STS_CONFIG_MASK) == DWT_STS_MODE_2)
1334:Core/Src/deca_device.c ****         || ((config->stsMode & DWT_STS_CONFIG_MASK) == DWT_STS_MODE_ND)
1335:Core/Src/deca_device.c ****         || ((config->stsMode & DWT_STS_CONFIG_MASK) == DWT_STS_MODE_SDC)
1336:Core/Src/deca_device.c ****         || ((config->stsMode & DWT_STS_CONFIG_MASK) == (DWT_STS_MODE_1 | DWT_STS_MODE_SDC))
1337:Core/Src/deca_device.c ****         || ((config->stsMode & DWT_STS_CONFIG_MASK) == (DWT_STS_MODE_2 | DWT_STS_MODE_SDC))
1338:Core/Src/deca_device.c ****         || ((config->stsMode & DWT_STS_CONFIG_MASK) == (DWT_STS_MODE_ND | DWT_STS_MODE_SDC))
1339:Core/Src/deca_device.c ****         || ((config->stsMode & DWT_STS_CONFIG_MASK) == DWT_STS_CONFIG_MASK));
1340:Core/Src/deca_device.c **** #endif
1341:Core/Src/deca_device.c ****     int preamble_len;
1342:Core/Src/deca_device.c **** 
1343:Core/Src/deca_device.c ****     switch (config->txPreambLength)
1344:Core/Src/deca_device.c ****     {
1345:Core/Src/deca_device.c ****     case DWT_PLEN_32:
1346:Core/Src/deca_device.c ****         preamble_len = 32;
1347:Core/Src/deca_device.c ****         break;
1348:Core/Src/deca_device.c ****     case DWT_PLEN_64:
1349:Core/Src/deca_device.c ****         preamble_len = 64;
1350:Core/Src/deca_device.c ****         break;
1351:Core/Src/deca_device.c ****     case DWT_PLEN_72:
1352:Core/Src/deca_device.c ****         preamble_len = 72;
1353:Core/Src/deca_device.c ****         break;
1354:Core/Src/deca_device.c ****     case DWT_PLEN_128:
1355:Core/Src/deca_device.c ****         preamble_len = 128;
1356:Core/Src/deca_device.c ****         break;
1357:Core/Src/deca_device.c ****     default:
1358:Core/Src/deca_device.c ****         preamble_len = 256;
1359:Core/Src/deca_device.c ****         break;
1360:Core/Src/deca_device.c ****     }
1361:Core/Src/deca_device.c **** 
1362:Core/Src/deca_device.c ****     pdw3000local->sleep_mode &= (~(DWT_ALT_OPS | DWT_SEL_OPS3));  //clear the sleep mode ALT_OPS bi
ARM GAS  /tmp/cclDsldr.s 			page 42


1363:Core/Src/deca_device.c ****     pdw3000local->longFrames = config->phrMode ;
1364:Core/Src/deca_device.c ****     sts_len=GET_STS_REG_SET_VALUE((uint16_t)(config->stsLength));
1365:Core/Src/deca_device.c ****     pdw3000local->ststhreshold = (int16_t)((((uint32_t)sts_len) * 8) * STSQUAL_THRESH_64);
1366:Core/Src/deca_device.c ****     pdw3000local->stsconfig = config->stsMode;
1367:Core/Src/deca_device.c **** 
1368:Core/Src/deca_device.c ****     /////////////////////////////////////////////////////////////////////////
1369:Core/Src/deca_device.c ****     //SYS_CFG
1370:Core/Src/deca_device.c ****     //clear the PHR Mode, PHR Rate, STS Protocol, SDC, PDOA Mode,
1371:Core/Src/deca_device.c ****     //then set the relevant bits according to configuration of the PHR Mode, PHR Rate, STS Protocol
1372:Core/Src/deca_device.c ****     dwt_modify32bitoffsetreg(SYS_CFG_ID, 0, ~(SYS_CFG_PHR_MODE_BIT_MASK | SYS_CFG_PHR_6M8_BIT_MASK 
1373:Core/Src/deca_device.c ****         ((uint32_t)config->pdoaMode) << SYS_CFG_PDOA_MODE_BIT_OFFSET
1374:Core/Src/deca_device.c ****         | ((uint16_t)config->stsMode & DWT_STS_CONFIG_MASK) << SYS_CFG_CP_SPC_BIT_OFFSET
1375:Core/Src/deca_device.c ****         | (SYS_CFG_PHR_6M8_BIT_MASK & ((uint32_t)config->phrRate << SYS_CFG_PHR_6M8_BIT_OFFSET))
1376:Core/Src/deca_device.c ****         | mode);
1377:Core/Src/deca_device.c **** 
1378:Core/Src/deca_device.c **** 
1379:Core/Src/deca_device.c ****     if (scp)
1380:Core/Src/deca_device.c ****     {
1381:Core/Src/deca_device.c ****         //configure OPS tables for SCP mode
1382:Core/Src/deca_device.c ****         pdw3000local->sleep_mode |= DWT_ALT_OPS | DWT_SEL_OPS1;  //configure correct OPS table is k
1383:Core/Src/deca_device.c ****         dwt_modify32bitoffsetreg(OTP_CFG_ID, 0, ~(OTP_CFG_OPS_ID_BIT_MASK), DWT_OPSET_SCP | OTP_CFG
1384:Core/Src/deca_device.c **** 
1385:Core/Src/deca_device.c ****         dwt_write32bitoffsetreg(IP_CONFIG_LO_ID, 0, IP_CONFIG_LO_SCP);       //Set this if Ipatov a
1386:Core/Src/deca_device.c ****         dwt_write32bitoffsetreg(IP_CONFIG_HI_ID, 0, IP_CONFIG_HI_SCP);
1387:Core/Src/deca_device.c **** 
1388:Core/Src/deca_device.c ****         dwt_write32bitoffsetreg(STS_CONFIG_LO_ID, 0, STS_CONFIG_LO_SCP);
1389:Core/Src/deca_device.c ****         dwt_write8bitoffsetreg(STS_CONFIG_HI_ID, 0, STS_CONFIG_HI_SCP);
1390:Core/Src/deca_device.c ****     }
1391:Core/Src/deca_device.c ****     else //
1392:Core/Src/deca_device.c ****     {
1393:Core/Src/deca_device.c ****         uint16_t sts_mnth;
1394:Core/Src/deca_device.c ****         if (config->stsMode != DWT_STS_MODE_OFF)
1395:Core/Src/deca_device.c ****         {
1396:Core/Src/deca_device.c ****            
1397:Core/Src/deca_device.c ****             //configure CIA STS lower bound
1398:Core/Src/deca_device.c ****             if ((config->pdoaMode == DWT_PDOA_M1) || (config->pdoaMode == DWT_PDOA_M0))
1399:Core/Src/deca_device.c ****             {
1400:Core/Src/deca_device.c ****                 //In PDOA mode 1, number of accumulated symbols is the whole length of the STS
1401:Core/Src/deca_device.c ****                 sts_mnth=get_sts_mnth(sts_length_factors[(uint8_t)(config->stsLength)], CIA_MANUALL
1402:Core/Src/deca_device.c ****             }
1403:Core/Src/deca_device.c ****             else
1404:Core/Src/deca_device.c ****             {
1405:Core/Src/deca_device.c ****                 //In PDOA mode 3 number of accumulated symbols is half of the length of STS symbols
1406:Core/Src/deca_device.c ****                 sts_mnth=get_sts_mnth(sts_length_factors[(uint8_t)(config->stsLength)], CIA_MANUALL
1407:Core/Src/deca_device.c ****             }
1408:Core/Src/deca_device.c **** 
1409:Core/Src/deca_device.c ****             preamble_len += (sts_len) * 8;
1410:Core/Src/deca_device.c **** 
1411:Core/Src/deca_device.c ****             dwt_modify16bitoffsetreg(STS_CONFIG_LO_ID, 2, (uint16_t)~(STS_CONFIG_LO_STS_MAN_TH_BIT_
1412:Core/Src/deca_device.c **** 
1413:Core/Src/deca_device.c ****         }
1414:Core/Src/deca_device.c **** 
1415:Core/Src/deca_device.c ****         //configure OPS tables for non-SCP mode
1416:Core/Src/deca_device.c ****         if (preamble_len >= 256)
1417:Core/Src/deca_device.c ****         {
1418:Core/Src/deca_device.c ****             pdw3000local->sleep_mode |= DWT_ALT_OPS | DWT_SEL_OPS0;
1419:Core/Src/deca_device.c ****             dwt_modify32bitoffsetreg(OTP_CFG_ID, 0, ~(OTP_CFG_OPS_ID_BIT_MASK), DWT_OPSET_LONG | OT
ARM GAS  /tmp/cclDsldr.s 			page 43


1420:Core/Src/deca_device.c ****         }
1421:Core/Src/deca_device.c ****         else
1422:Core/Src/deca_device.c ****         {
1423:Core/Src/deca_device.c ****             dwt_modify32bitoffsetreg(OTP_CFG_ID, 0, ~(OTP_CFG_OPS_ID_BIT_MASK), DWT_OPSET_SHORT | O
1424:Core/Src/deca_device.c ****         }
1425:Core/Src/deca_device.c **** 
1426:Core/Src/deca_device.c ****     }
1427:Core/Src/deca_device.c **** 
1428:Core/Src/deca_device.c ****     dwt_modify8bitoffsetreg(DTUNE0_ID, 0, (uint8_t) ~DTUNE0_PRE_PAC_SYM_BIT_MASK, config->rxPAC);
1429:Core/Src/deca_device.c **** 
1430:Core/Src/deca_device.c ****     dwt_write8bitoffsetreg(STS_CFG0_ID, 0, sts_len-1);    /*Starts from 0 that is why -1*/
1431:Core/Src/deca_device.c **** 
1432:Core/Src/deca_device.c ****     if (config->txPreambLength == DWT_PLEN_72)
1433:Core/Src/deca_device.c ****     {
1434:Core/Src/deca_device.c ****         dwt_setplenfine(8); //value 8 sets fine preamble length to 72 symbols - this is needed to s
1435:Core/Src/deca_device.c ****     }
1436:Core/Src/deca_device.c ****     else
1437:Core/Src/deca_device.c ****     {
1438:Core/Src/deca_device.c ****         dwt_setplenfine(0); //clear the setting in the FINE_PLEN register.
1439:Core/Src/deca_device.c ****     }
1440:Core/Src/deca_device.c **** 
1441:Core/Src/deca_device.c ****     if((config->stsMode & DWT_STS_MODE_ND) == DWT_STS_MODE_ND)
1442:Core/Src/deca_device.c ****     {
1443:Core/Src/deca_device.c ****         //configure lower preamble detection threshold for no data STS mode
1444:Core/Src/deca_device.c ****         dwt_write32bitoffsetreg(DTUNE3_ID, 0, PD_THRESH_NO_DATA);
1445:Core/Src/deca_device.c ****     }
1446:Core/Src/deca_device.c ****     else
1447:Core/Src/deca_device.c ****     {
1448:Core/Src/deca_device.c ****         //configure default preamble detection threshold for other modes
1449:Core/Src/deca_device.c ****         dwt_write32bitoffsetreg(DTUNE3_ID, 0, PD_THRESH_DEFAULT);
1450:Core/Src/deca_device.c ****     }
1451:Core/Src/deca_device.c **** 
1452:Core/Src/deca_device.c ****     /////////////////////////////////////////////////////////////////////////
1453:Core/Src/deca_device.c ****     //CHAN_CTRL
1454:Core/Src/deca_device.c ****     temp = dwt_read32bitoffsetreg(CHAN_CTRL_ID, 0);
1455:Core/Src/deca_device.c ****     temp &= (~(CHAN_CTRL_RX_PCODE_BIT_MASK | CHAN_CTRL_TX_PCODE_BIT_MASK | CHAN_CTRL_SFD_TYPE_BIT_M
1456:Core/Src/deca_device.c **** 
1457:Core/Src/deca_device.c ****     if (chan == 9) temp |= CHAN_CTRL_RF_CHAN_BIT_MASK;
1458:Core/Src/deca_device.c **** 
1459:Core/Src/deca_device.c ****     temp |= (CHAN_CTRL_RX_PCODE_BIT_MASK & ((uint32_t)config->rxCode << CHAN_CTRL_RX_PCODE_BIT_OFFS
1460:Core/Src/deca_device.c ****     temp |= (CHAN_CTRL_TX_PCODE_BIT_MASK & ((uint32_t)config->txCode << CHAN_CTRL_TX_PCODE_BIT_OFFS
1461:Core/Src/deca_device.c ****     temp |= (CHAN_CTRL_SFD_TYPE_BIT_MASK & ((uint32_t)config->sfdType << CHAN_CTRL_SFD_TYPE_BIT_OFF
1462:Core/Src/deca_device.c **** 
1463:Core/Src/deca_device.c ****     dwt_write32bitoffsetreg(CHAN_CTRL_ID, 0, temp);
1464:Core/Src/deca_device.c **** 
1465:Core/Src/deca_device.c ****     /////////////////////////////////////////////////////////////////////////
1466:Core/Src/deca_device.c ****     //TX_FCTRL
1467:Core/Src/deca_device.c ****     // Set up TX Preamble Size, PRF and Data Rate
1468:Core/Src/deca_device.c ****     dwt_modify32bitoffsetreg(TX_FCTRL_ID, 0, ~(TX_FCTRL_TXBR_BIT_MASK | TX_FCTRL_TXPSR_BIT_MASK),
1469:Core/Src/deca_device.c ****                                               ((uint32_t)config->dataRate << TX_FCTRL_TXBR_BIT_OFFS
1470:Core/Src/deca_device.c ****                                               | ((uint32_t) config->txPreambLength) << TX_FCTRL_TXP
1471:Core/Src/deca_device.c **** 
1472:Core/Src/deca_device.c **** 
1473:Core/Src/deca_device.c ****     //DTUNE (SFD timeout)
1474:Core/Src/deca_device.c ****     // Don't allow 0 - SFD timeout will always be enabled
1475:Core/Src/deca_device.c ****     if (config->sfdTO == 0)
1476:Core/Src/deca_device.c ****     {
ARM GAS  /tmp/cclDsldr.s 			page 44


1477:Core/Src/deca_device.c ****         config->sfdTO = DWT_SFDTOC_DEF;
1478:Core/Src/deca_device.c ****     }
1479:Core/Src/deca_device.c ****     dwt_write16bitoffsetreg(DTUNE0_ID, 2, config->sfdTO);
1480:Core/Src/deca_device.c **** 
1481:Core/Src/deca_device.c **** 
1482:Core/Src/deca_device.c ****     ///////////////////////
1483:Core/Src/deca_device.c ****     // RF
1484:Core/Src/deca_device.c ****     if (chan == 9)
1485:Core/Src/deca_device.c ****     {
1486:Core/Src/deca_device.c ****         // Setup TX analog for ch9
1487:Core/Src/deca_device.c ****         dwt_write32bitoffsetreg(TX_CTRL_HI_ID, 0, RF_TXCTRL_CH9);
1488:Core/Src/deca_device.c ****         dwt_write16bitoffsetreg(PLL_CFG_ID, 0, RF_PLL_CFG_CH9);
1489:Core/Src/deca_device.c ****         // Setup RX analog for ch9
1490:Core/Src/deca_device.c ****         dwt_write32bitoffsetreg(RX_CTRL_HI_ID, 0, RF_RXCTRL_CH9);
1491:Core/Src/deca_device.c ****     }
1492:Core/Src/deca_device.c ****     else
1493:Core/Src/deca_device.c ****     {
1494:Core/Src/deca_device.c ****         // Setup TX analog for ch5
1495:Core/Src/deca_device.c ****         dwt_write32bitoffsetreg(TX_CTRL_HI_ID, 0, RF_TXCTRL_CH5);
1496:Core/Src/deca_device.c ****         dwt_write16bitoffsetreg(PLL_CFG_ID, 0, RF_PLL_CFG_CH5);
1497:Core/Src/deca_device.c ****     }
1498:Core/Src/deca_device.c **** 
1499:Core/Src/deca_device.c ****     dwt_write8bitoffsetreg(LDO_RLOAD_ID, 1, LDO_RLOAD_VAL_B1);
1500:Core/Src/deca_device.c ****     dwt_write8bitoffsetreg(TX_CTRL_LO_ID, 2, RF_TXCTRL_LO_B2);
1501:Core/Src/deca_device.c ****     dwt_write8bitoffsetreg(PLL_CAL_ID, 0, RF_PLL_CFG_LD);        // Extend the lock delay
1502:Core/Src/deca_device.c **** 
1503:Core/Src/deca_device.c ****     //Verify PLL lock bit is cleared
1504:Core/Src/deca_device.c ****     dwt_write8bitoffsetreg(SYS_STATUS_ID, 0, SYS_STATUS_CP_LOCK_BIT_MASK);
1505:Core/Src/deca_device.c **** 
1506:Core/Src/deca_device.c ****     ///////////////////////
1507:Core/Src/deca_device.c ****     // auto cal the PLL and change to IDLE_PLL state
1508:Core/Src/deca_device.c ****     dwt_setdwstate(DWT_DW_IDLE);
1509:Core/Src/deca_device.c **** 
1510:Core/Src/deca_device.c ****     for (flag=1,cnt=0;cnt<MAX_RETRIES_FOR_PLL;cnt++)
1511:Core/Src/deca_device.c ****     {
1512:Core/Src/deca_device.c ****         deca_usleep(DELAY_20uUSec);
1513:Core/Src/deca_device.c ****         if ((dwt_read8bitoffsetreg(SYS_STATUS_ID, 0) & SYS_STATUS_CP_LOCK_BIT_MASK))
1514:Core/Src/deca_device.c ****         {//PLL is locked
1515:Core/Src/deca_device.c ****             flag=0;
1516:Core/Src/deca_device.c ****             break;
1517:Core/Src/deca_device.c ****         }
1518:Core/Src/deca_device.c ****     }
1519:Core/Src/deca_device.c ****     if (flag)
1520:Core/Src/deca_device.c ****     {
1521:Core/Src/deca_device.c ****         return  DWT_ERROR;
1522:Core/Src/deca_device.c ****     }
1523:Core/Src/deca_device.c **** 
1524:Core/Src/deca_device.c ****     if ((config->rxCode >= 9) && (config->rxCode <= 24)) //only enable DGC for PRF 64
1525:Core/Src/deca_device.c ****     {
1526:Core/Src/deca_device.c ****         //load RX LUTs
1527:Core/Src/deca_device.c ****         /* If the OTP has DGC info programmed into it, do a manual kick from OTP. */
1528:Core/Src/deca_device.c ****         if (pdw3000local->dgc_otp_set == DWT_DGC_LOAD_FROM_OTP)
1529:Core/Src/deca_device.c ****         {
1530:Core/Src/deca_device.c ****             _dwt_kick_dgc_on_wakeup(chan);
1531:Core/Src/deca_device.c ****         }
1532:Core/Src/deca_device.c ****         /* Else we manually program hard-coded values into the DGC registers. */
1533:Core/Src/deca_device.c ****         else
ARM GAS  /tmp/cclDsldr.s 			page 45


1534:Core/Src/deca_device.c ****         {
1535:Core/Src/deca_device.c ****             dwt_configmrxlut(chan);
1536:Core/Src/deca_device.c ****         }
1537:Core/Src/deca_device.c ****         dwt_modify16bitoffsetreg(DGC_CFG_ID, 0x0, (uint16_t)~DGC_CFG_THR_64_BIT_MASK, DWT_DGC_CFG <
1538:Core/Src/deca_device.c ****     }
1539:Core/Src/deca_device.c ****     else
1540:Core/Src/deca_device.c ****     {
1541:Core/Src/deca_device.c ****         dwt_and8bitoffsetreg(DGC_CFG_ID, 0x0, (uint8_t)~DGC_CFG_RX_TUNE_EN_BIT_MASK);
1542:Core/Src/deca_device.c ****     }
1543:Core/Src/deca_device.c **** 
1544:Core/Src/deca_device.c ****     ///////////////////////
1545:Core/Src/deca_device.c ****     // PGF
1546:Core/Src/deca_device.c ****     error = dwt_pgf_cal(1);  //if the RX calibration routine fails the device receiver performance 
1547:Core/Src/deca_device.c **** 
1548:Core/Src/deca_device.c **** 
1549:Core/Src/deca_device.c ****     return error;
1550:Core/Src/deca_device.c **** } // end dwt_configure()
1551:Core/Src/deca_device.c **** 
1552:Core/Src/deca_device.c **** /*! -----------------------------------------------------------------------------------------------
1553:Core/Src/deca_device.c ****  *
1554:Core/Src/deca_device.c ****  * @brief This function runs the PGF calibration. This is needed prior to reception.
1555:Core/Src/deca_device.c ****  * Note: If the RX calibration routine fails the device receiver performance will be severely affec
1556:Core/Src/deca_device.c ****  *
1557:Core/Src/deca_device.c ****  * input parameters
1558:Core/Src/deca_device.c ****  * @param ldoen    -   if set to 1 the function will enable LDOs prior to calibration and disable a
1559:Core/Src/deca_device.c ****  *
1560:Core/Src/deca_device.c ****  * return result of PGF calibration (DWT_ERROR/-1 = error)
1561:Core/Src/deca_device.c ****  *
1562:Core/Src/deca_device.c ****  */
1563:Core/Src/deca_device.c **** int dwt_pgf_cal(int ldoen)
1564:Core/Src/deca_device.c **** {
1565:Core/Src/deca_device.c ****     int temp;
1566:Core/Src/deca_device.c ****     uint16_t val;
1567:Core/Src/deca_device.c **** 
1568:Core/Src/deca_device.c ****     //PGF needs LDOs turned on - ensure PGF LDOs are enabled
1569:Core/Src/deca_device.c ****     if (ldoen == 1)
1570:Core/Src/deca_device.c ****     {
1571:Core/Src/deca_device.c ****         val = dwt_read16bitoffsetreg(LDO_CTRL_ID, 0);
1572:Core/Src/deca_device.c **** 
1573:Core/Src/deca_device.c ****         dwt_or16bitoffsetreg(LDO_CTRL_ID, 0, (
1574:Core/Src/deca_device.c ****             LDO_CTRL_LDO_VDDIF2_EN_BIT_MASK |
1575:Core/Src/deca_device.c ****             LDO_CTRL_LDO_VDDMS3_EN_BIT_MASK |
1576:Core/Src/deca_device.c ****             LDO_CTRL_LDO_VDDMS1_EN_BIT_MASK));
1577:Core/Src/deca_device.c ****     }
1578:Core/Src/deca_device.c **** 
1579:Core/Src/deca_device.c ****     //Run PGF Cal
1580:Core/Src/deca_device.c ****     temp = dwt_run_pgfcal();
1581:Core/Src/deca_device.c **** 
1582:Core/Src/deca_device.c ****     //Turn off RX LDOs if previously off
1583:Core/Src/deca_device.c ****     if (ldoen == 1)
1584:Core/Src/deca_device.c ****     {
1585:Core/Src/deca_device.c ****         dwt_and16bitoffsetreg(LDO_CTRL_ID, 0, val); // restore LDO values
1586:Core/Src/deca_device.c ****     }
1587:Core/Src/deca_device.c ****     return temp;
1588:Core/Src/deca_device.c **** }
1589:Core/Src/deca_device.c **** 
1590:Core/Src/deca_device.c **** /*! -----------------------------------------------------------------------------------------------
ARM GAS  /tmp/cclDsldr.s 			page 46


1591:Core/Src/deca_device.c ****  *
1592:Core/Src/deca_device.c ****  * @brief This function runs the PGF calibration. This is needed prior to reception.
1593:Core/Src/deca_device.c ****  *
1594:Core/Src/deca_device.c ****  * input parameters
1595:Core/Src/deca_device.c ****  *
1596:Core/Src/deca_device.c ****  * return result of PGF calibration (DWT_ERROR/-1 = error)
1597:Core/Src/deca_device.c ****  *
1598:Core/Src/deca_device.c ****  */
1599:Core/Src/deca_device.c **** int dwt_run_pgfcal(void)
1600:Core/Src/deca_device.c **** {
1601:Core/Src/deca_device.c ****     int result = DWT_SUCCESS;
1602:Core/Src/deca_device.c ****     uint32_t    data;
1603:Core/Src/deca_device.c ****     uint32_t    val = 0;
1604:Core/Src/deca_device.c ****     uint8_t     cnt,flag;
1605:Core/Src/deca_device.c ****     //put into cal mode
1606:Core/Src/deca_device.c ****     //Turn on delay mode
1607:Core/Src/deca_device.c ****     data = (((uint32_t)0x02) << RX_CAL_CFG_COMP_DLY_BIT_OFFSET) | (RX_CAL_CFG_CAL_MODE_BIT_MASK & 0
1608:Core/Src/deca_device.c ****     dwt_write32bitoffsetreg(RX_CAL_CFG_ID, 0x0, data);
1609:Core/Src/deca_device.c ****     // Trigger PGF Cal
1610:Core/Src/deca_device.c ****     dwt_or8bitoffsetreg(RX_CAL_CFG_ID, 0x0, RX_CAL_CFG_CAL_EN_BIT_MASK);
1611:Core/Src/deca_device.c ****     
1612:Core/Src/deca_device.c ****     for (flag=1,cnt=0;cnt<MAX_RETRIES_FOR_PGF;cnt++)
1613:Core/Src/deca_device.c ****     {
1614:Core/Src/deca_device.c ****         deca_usleep(DELAY_20uUSec);
1615:Core/Src/deca_device.c ****         if(dwt_read8bitoffsetreg(RX_CAL_STS_ID, 0x0) == 1)
1616:Core/Src/deca_device.c ****         {//PGF cal is complete
1617:Core/Src/deca_device.c ****             flag=0;
1618:Core/Src/deca_device.c ****             break;
1619:Core/Src/deca_device.c ****         }
1620:Core/Src/deca_device.c ****     }
1621:Core/Src/deca_device.c ****     if (flag)
1622:Core/Src/deca_device.c ****     {
1623:Core/Src/deca_device.c ****         result = DWT_ERROR;
1624:Core/Src/deca_device.c ****     }
1625:Core/Src/deca_device.c **** 
1626:Core/Src/deca_device.c ****     // Put into normal mode
1627:Core/Src/deca_device.c ****     dwt_write8bitoffsetreg(RX_CAL_CFG_ID, 0x0, 0);
1628:Core/Src/deca_device.c ****     dwt_write8bitoffsetreg(RX_CAL_STS_ID, 0x0, 1); //clear the status
1629:Core/Src/deca_device.c ****     dwt_or8bitoffsetreg(RX_CAL_CFG_ID, 0x2, 0x1); //enable reading
1630:Core/Src/deca_device.c ****     val = dwt_read32bitoffsetreg(RX_CAL_RESI_ID, 0x0);
1631:Core/Src/deca_device.c ****     if (val == ERR_RX_CAL_FAIL)
1632:Core/Src/deca_device.c ****     {
1633:Core/Src/deca_device.c ****         //PGF I Cal Fail
1634:Core/Src/deca_device.c ****         result = DWT_ERROR;
1635:Core/Src/deca_device.c ****     }
1636:Core/Src/deca_device.c ****     val = dwt_read32bitoffsetreg(RX_CAL_RESQ_ID, 0x0);
1637:Core/Src/deca_device.c ****     if (val == ERR_RX_CAL_FAIL)
1638:Core/Src/deca_device.c ****     {
1639:Core/Src/deca_device.c ****         //PGF Q Cal Fail
1640:Core/Src/deca_device.c ****         result = DWT_ERROR;
1641:Core/Src/deca_device.c ****     }
1642:Core/Src/deca_device.c ****     
1643:Core/Src/deca_device.c ****     return result;
1644:Core/Src/deca_device.c **** }
1645:Core/Src/deca_device.c **** 
1646:Core/Src/deca_device.c **** /*! -----------------------------------------------------------------------------------------------
1647:Core/Src/deca_device.c ****  * @brief This API function writes the antenna delay (in time units) to RX registers
ARM GAS  /tmp/cclDsldr.s 			page 47


1648:Core/Src/deca_device.c ****  *
1649:Core/Src/deca_device.c ****  * input parameters:
1650:Core/Src/deca_device.c ****  * @param rxDelay - this is the total (RX) antenna delay value, which
1651:Core/Src/deca_device.c ****  *                          will be programmed into the RX register
1652:Core/Src/deca_device.c ****  *
1653:Core/Src/deca_device.c ****  * output parameters
1654:Core/Src/deca_device.c ****  *
1655:Core/Src/deca_device.c ****  * no return value
1656:Core/Src/deca_device.c ****  */
1657:Core/Src/deca_device.c **** void dwt_setrxantennadelay(uint16_t rxDelay)
1658:Core/Src/deca_device.c **** {
1659:Core/Src/deca_device.c ****     // Set the RX antenna delay for auto TX timestamp adjustment
1660:Core/Src/deca_device.c ****     dwt_write16bitoffsetreg(CIA_CONF_ID, 0, rxDelay);
1661:Core/Src/deca_device.c **** }
1662:Core/Src/deca_device.c **** 
1663:Core/Src/deca_device.c **** /*! -----------------------------------------------------------------------------------------------
1664:Core/Src/deca_device.c ****  * @brief This API function writes the antenna delay (in time units) to TX registers
1665:Core/Src/deca_device.c ****  *
1666:Core/Src/deca_device.c ****  * input parameters:
1667:Core/Src/deca_device.c ****  * @param txDelay - this is the total (TX) antenna delay value, which
1668:Core/Src/deca_device.c ****  *                          will be programmed into the TX delay register
1669:Core/Src/deca_device.c ****  *
1670:Core/Src/deca_device.c ****  * output parameters
1671:Core/Src/deca_device.c ****  *
1672:Core/Src/deca_device.c ****  * no return value
1673:Core/Src/deca_device.c ****  */
1674:Core/Src/deca_device.c **** void dwt_settxantennadelay(uint16_t txDelay)
1675:Core/Src/deca_device.c **** {
1676:Core/Src/deca_device.c ****     // Set the TX antenna delay for auto TX timestamp adjustment
1677:Core/Src/deca_device.c ****     dwt_write16bitoffsetreg(TX_ANTD_ID, 0, txDelay);
1678:Core/Src/deca_device.c **** }
1679:Core/Src/deca_device.c **** 
1680:Core/Src/deca_device.c **** /*! -----------------------------------------------------------------------------------------------
1681:Core/Src/deca_device.c ****  * @brief This API function writes the supplied TX data into the DW3000's
1682:Core/Src/deca_device.c ****  * TX buffer.  The input parameters are the data length in bytes and a pointer
1683:Core/Src/deca_device.c ****  * to those data bytes.
1684:Core/Src/deca_device.c ****  *
1685:Core/Src/deca_device.c ****  * input parameters
1686:Core/Src/deca_device.c ****  * @param txDataLength   - This is the total length of data (in bytes) to write to the tx buffer.
1687:Core/Src/deca_device.c ****  *                         Note: the size of tx buffer is 1024 bytes.
1688:Core/Src/deca_device.c ****  *                         The standard PHR mode allows to transmit frames of up to 127 bytes (incl
1689:Core/Src/deca_device.c ****  *                         The extended PHR mode allows to transmit frames of up to 1023 bytes (inc
1690:Core/Src/deca_device.c ****  *                         if > 127 is programmed, DWT_PHRMODE_EXT needs to be set in the phrMode c
1691:Core/Src/deca_device.c ****  *                         see dwt_configure function
1692:Core/Src/deca_device.c ****  * @param txDataBytes    - Pointer to the users buffer containing the data to send.
1693:Core/Src/deca_device.c ****  * @param txBufferOffset - This specifies an offset in the DW ICs TX Buffer at which to start wr
1694:Core/Src/deca_device.c ****  *
1695:Core/Src/deca_device.c ****  * output parameters
1696:Core/Src/deca_device.c ****  *
1697:Core/Src/deca_device.c ****  * returns DWT_SUCCESS for success, or DWT_ERROR for error
1698:Core/Src/deca_device.c ****  */
1699:Core/Src/deca_device.c **** int dwt_writetxdata(uint16_t txDataLength, uint8_t *txDataBytes, uint16_t txBufferOffset)
1700:Core/Src/deca_device.c **** {
1701:Core/Src/deca_device.c **** #ifdef DWT_API_ERROR_CHECK
1702:Core/Src/deca_device.c ****     assert((pdw3000local->longFrames && (txDataLength <= EXT_FRAME_LEN)) ||\
1703:Core/Src/deca_device.c ****            (txDataLength <= STD_FRAME_LEN));
1704:Core/Src/deca_device.c ****     assert((txBufferOffset + txDataLength) < TX_BUFFER_MAX_LEN);
ARM GAS  /tmp/cclDsldr.s 			page 48


1705:Core/Src/deca_device.c **** #endif
1706:Core/Src/deca_device.c **** 
1707:Core/Src/deca_device.c ****     if ((txBufferOffset + txDataLength) < TX_BUFFER_MAX_LEN)
1708:Core/Src/deca_device.c ****     {
1709:Core/Src/deca_device.c ****         if(txBufferOffset <= REG_DIRECT_OFFSET_MAX_LEN)
1710:Core/Src/deca_device.c ****         {
1711:Core/Src/deca_device.c ****             /* Directly write the data to the IC TX buffer */
1712:Core/Src/deca_device.c ****             dwt_writetodevice(TX_BUFFER_ID, txBufferOffset, txDataLength, txDataBytes);
1713:Core/Src/deca_device.c ****         }
1714:Core/Src/deca_device.c ****         else
1715:Core/Src/deca_device.c ****         {
1716:Core/Src/deca_device.c ****             /* Program the indirect offset register A for specified offset to TX buffer */
1717:Core/Src/deca_device.c ****             dwt_write32bitreg(INDIRECT_ADDR_A_ID, (TX_BUFFER_ID >> 16) );
1718:Core/Src/deca_device.c ****             dwt_write32bitreg(ADDR_OFFSET_A_ID,   txBufferOffset);
1719:Core/Src/deca_device.c **** 
1720:Core/Src/deca_device.c ****             /* Indirectly write the data to the IC TX buffer */
1721:Core/Src/deca_device.c ****             dwt_writetodevice(INDIRECT_POINTER_A_ID, 0, txDataLength, txDataBytes);
1722:Core/Src/deca_device.c ****         }
1723:Core/Src/deca_device.c ****         return DWT_SUCCESS;
1724:Core/Src/deca_device.c ****     }
1725:Core/Src/deca_device.c ****     else
1726:Core/Src/deca_device.c ****         return DWT_ERROR;
1727:Core/Src/deca_device.c **** } // end dwt_writetxdata()
1728:Core/Src/deca_device.c **** 
1729:Core/Src/deca_device.c **** /*! -----------------------------------------------------------------------------------------------
1730:Core/Src/deca_device.c ****  * @brief This API function configures the TX frame control register before the transmission of a f
1731:Core/Src/deca_device.c ****  *
1732:Core/Src/deca_device.c ****  * input parameters:
1733:Core/Src/deca_device.c ****  * @param txFrameLength - this is the length of TX message (including the 2 byte CRC) - max is 1023
1734:Core/Src/deca_device.c ****  *                              NOTE: standard PHR mode allows up to 127 bytes
1735:Core/Src/deca_device.c ****  *                              if > 127 is programmed, DWT_PHRMODE_EXT needs to be set in the phrM
1736:Core/Src/deca_device.c ****  *                              see dwt_configure function
1737:Core/Src/deca_device.c ****  * @param txBufferOffset - the offset in the tx buffer to start writing the data
1738:Core/Src/deca_device.c ****  * @param ranging - 1 if this is a ranging frame, else 0
1739:Core/Src/deca_device.c ****  *
1740:Core/Src/deca_device.c ****  * output parameters
1741:Core/Src/deca_device.c ****  *
1742:Core/Src/deca_device.c ****  * no return value
1743:Core/Src/deca_device.c ****  */
1744:Core/Src/deca_device.c **** void dwt_writetxfctrl(uint16_t txFrameLength, uint16_t txBufferOffset, uint8_t ranging)
1745:Core/Src/deca_device.c **** {
1746:Core/Src/deca_device.c ****     uint32_t reg32;
1747:Core/Src/deca_device.c **** #ifdef DWT_API_ERROR_CHECK
1748:Core/Src/deca_device.c ****     assert((pdw3000local->longFrames && (txFrameLength <= EXT_FRAME_LEN)) ||\
1749:Core/Src/deca_device.c ****            (txFrameLength <= STD_FRAME_LEN));
1750:Core/Src/deca_device.c **** #endif
1751:Core/Src/deca_device.c **** 
1752:Core/Src/deca_device.c ****     //DW3000/3700 - if offset is > 127, 128 needs to be added before data is written, this will be 
1753:Core/Src/deca_device.c ****     //prior to writing the data
1754:Core/Src/deca_device.c ****     if(txBufferOffset <= 127)
1755:Core/Src/deca_device.c ****     {
1756:Core/Src/deca_device.c ****         // Write the frame length to the TX frame control register
1757:Core/Src/deca_device.c ****         reg32 = txFrameLength | ((uint32_t)(txBufferOffset) << TX_FCTRL_TXB_OFFSET_BIT_OFFSET) | ((
1758:Core/Src/deca_device.c ****         dwt_modify32bitoffsetreg(TX_FCTRL_ID, 0, ~(TX_FCTRL_TXB_OFFSET_BIT_MASK | TX_FCTRL_TR_BIT_M
1759:Core/Src/deca_device.c ****     }
1760:Core/Src/deca_device.c ****     else
1761:Core/Src/deca_device.c ****     {
ARM GAS  /tmp/cclDsldr.s 			page 49


1762:Core/Src/deca_device.c ****         // Write the frame length to the TX frame control register
1763:Core/Src/deca_device.c ****         reg32 = txFrameLength | ((uint32_t)(txBufferOffset + DWT_TX_BUFF_OFFSET_ADJUST) << TX_FCTRL
1764:Core/Src/deca_device.c ****         dwt_modify32bitoffsetreg(TX_FCTRL_ID, 0, ~(TX_FCTRL_TXB_OFFSET_BIT_MASK | TX_FCTRL_TR_BIT_M
1765:Core/Src/deca_device.c ****         reg32 = dwt_read8bitoffsetreg(SAR_CTRL_ID, 0); //DW3000/3700 - need to read this to load th
1766:Core/Src/deca_device.c ****     }
1767:Core/Src/deca_device.c **** 
1768:Core/Src/deca_device.c **** } // end dwt_writetxfctrl()
1769:Core/Src/deca_device.c **** 
1770:Core/Src/deca_device.c **** /*! -----------------------------------------------------------------------------------------------
1771:Core/Src/deca_device.c **** * @brief This API function is used to configure frame preamble length, the frame premable length ca
1772:Core/Src/deca_device.c **** * configured in steps of 8, from 16 to 2048 symbols. If a non-zero value is configured, then the TX
1773:Core/Src/deca_device.c **** *
1774:Core/Src/deca_device.c **** * input parameters:
1775:Core/Src/deca_device.c **** * @param preambleLength - sets the length of the preamble, value of 0 disables this setting and the
1776:Core/Src/deca_device.c **** *                         frame will be dependent on the TXPSR_PE setting as configured by dwt_conf
1777:Core/Src/deca_device.c **** *
1778:Core/Src/deca_device.c **** * output parameters
1779:Core/Src/deca_device.c **** *
1780:Core/Src/deca_device.c **** * no return value
1781:Core/Src/deca_device.c **** */
1782:Core/Src/deca_device.c **** void dwt_setplenfine(uint8_t preambleLength)
1783:Core/Src/deca_device.c **** {
1784:Core/Src/deca_device.c ****     dwt_write8bitoffsetreg(TX_FCTRL_HI_ID, 1, preambleLength);
1785:Core/Src/deca_device.c **** }
1786:Core/Src/deca_device.c **** 
1787:Core/Src/deca_device.c **** /*! -----------------------------------------------------------------------------------------------
1788:Core/Src/deca_device.c ****  * @brief This is used to read the data from the RX scratch buffer, from an offset location given b
1789:Core/Src/deca_device.c ****  *
1790:Core/Src/deca_device.c ****  * input parameters
1791:Core/Src/deca_device.c ****  * @param buffer - the buffer into which the data will be read
1792:Core/Src/deca_device.c ****  * @param length - the length of data to read (in bytes)
1793:Core/Src/deca_device.c ****  * @param rxBufferOffset - the offset in the rx buffer from which to read the data
1794:Core/Src/deca_device.c ****  *
1795:Core/Src/deca_device.c ****  * output parameters
1796:Core/Src/deca_device.c ****  *
1797:Core/Src/deca_device.c ****  * no return value
1798:Core/Src/deca_device.c ****  */
1799:Core/Src/deca_device.c **** void dwt_read_rx_scratch_data(uint8_t *buffer, uint16_t length, uint16_t rxBufferOffset)
1800:Core/Src/deca_device.c **** {
1801:Core/Src/deca_device.c ****     //!!Check later if needs range protection.
1802:Core/Src/deca_device.c **** 
1803:Core/Src/deca_device.c ****     /* Directly read data from the IC to the buffer */
1804:Core/Src/deca_device.c ****     dwt_readfromdevice(SCRATCH_RAM_ID,rxBufferOffset,length,buffer);
1805:Core/Src/deca_device.c **** }
1806:Core/Src/deca_device.c **** 
1807:Core/Src/deca_device.c **** /*! -----------------------------------------------------------------------------------------------
1808:Core/Src/deca_device.c ****  * @brief This is used to read the data from the RX buffer, from an offset location give by offset 
1809:Core/Src/deca_device.c ****  *
1810:Core/Src/deca_device.c ****  * input parameters
1811:Core/Src/deca_device.c ****  * @param buffer - the buffer into which the data will be read
1812:Core/Src/deca_device.c ****  * @param length - the length of data to read (in bytes)
1813:Core/Src/deca_device.c ****  * @param rxBufferOffset - the offset in the rx buffer from which to read the data
1814:Core/Src/deca_device.c ****  *
1815:Core/Src/deca_device.c ****  * output parameters
1816:Core/Src/deca_device.c ****  *
1817:Core/Src/deca_device.c ****  * no return value
1818:Core/Src/deca_device.c ****  */
ARM GAS  /tmp/cclDsldr.s 			page 50


1819:Core/Src/deca_device.c **** void dwt_readrxdata(uint8_t *buffer, uint16_t length, uint16_t rxBufferOffset)
1820:Core/Src/deca_device.c **** {
1821:Core/Src/deca_device.c ****     uint32_t  rx_buff_addr;
1822:Core/Src/deca_device.c **** 
1823:Core/Src/deca_device.c ****     if (pdw3000local->dblbuffon == DBL_BUFF_ACCESS_BUFFER_1)  //if the flag is 0x3 we are reading f
1824:Core/Src/deca_device.c ****     {
1825:Core/Src/deca_device.c ****         rx_buff_addr=RX_BUFFER_1_ID;
1826:Core/Src/deca_device.c ****     }
1827:Core/Src/deca_device.c ****     else //reading from RX_BUFFER_0 - also when non-double buffer mode
1828:Core/Src/deca_device.c ****     {
1829:Core/Src/deca_device.c ****         rx_buff_addr=RX_BUFFER_0_ID;
1830:Core/Src/deca_device.c ****     }
1831:Core/Src/deca_device.c **** 
1832:Core/Src/deca_device.c ****     if ((rxBufferOffset + length) <= RX_BUFFER_MAX_LEN)
1833:Core/Src/deca_device.c ****     {
1834:Core/Src/deca_device.c ****         if(rxBufferOffset <= REG_DIRECT_OFFSET_MAX_LEN)
1835:Core/Src/deca_device.c ****         {
1836:Core/Src/deca_device.c ****             /* Directly read data from the IC to the buffer */
1837:Core/Src/deca_device.c ****             dwt_readfromdevice(rx_buff_addr,rxBufferOffset,length,buffer);
1838:Core/Src/deca_device.c ****         }
1839:Core/Src/deca_device.c ****         else
1840:Core/Src/deca_device.c ****         {
1841:Core/Src/deca_device.c ****             /* Program the indirect offset registers B for specified offset to RX buffer */
1842:Core/Src/deca_device.c ****             dwt_write32bitreg(INDIRECT_ADDR_A_ID, (rx_buff_addr >> 16) );
1843:Core/Src/deca_device.c ****             dwt_write32bitreg(ADDR_OFFSET_A_ID,   rxBufferOffset);
1844:Core/Src/deca_device.c **** 
1845:Core/Src/deca_device.c ****             /* Indirectly read data from the IC to the buffer */
1846:Core/Src/deca_device.c ****             dwt_readfromdevice(INDIRECT_POINTER_A_ID, 0, length, buffer);
1847:Core/Src/deca_device.c ****         }
1848:Core/Src/deca_device.c ****     }
1849:Core/Src/deca_device.c **** }
1850:Core/Src/deca_device.c **** 
1851:Core/Src/deca_device.c **** /*! -----------------------------------------------------------------------------------------------
1852:Core/Src/deca_device.c ****  * @brief This is used to read the 18 bit data from the Accumulator buffer, from an offset location
1853:Core/Src/deca_device.c ****  *        for 18 bit complex samples, each sample is 6 bytes (3 real and 3 imaginary)
1854:Core/Src/deca_device.c ****  *
1855:Core/Src/deca_device.c ****  *
1856:Core/Src/deca_device.c ****  * NOTE: Because of an internal memory access delay when reading the accumulator the first octet ou
1857:Core/Src/deca_device.c ****  *       that should be discarded. This is true no matter what sub-index the read begins at.
1858:Core/Src/deca_device.c ****  *
1859:Core/Src/deca_device.c ****  * input parameters
1860:Core/Src/deca_device.c ****  * @param buffer - the buffer into which the data will be read
1861:Core/Src/deca_device.c ****  * @param length - the length of data to read (in bytes)
1862:Core/Src/deca_device.c ****  * @param accOffset - the offset in the acc buffer from which to read the data, this is a complex s
1863:Core/Src/deca_device.c ****  *                    e.g. to read 10 samples starting at sample 100
1864:Core/Src/deca_device.c ****  *                    buffer would need to be >= 10*6 + 1, length is 61 (1 is for dummy), accOffset
1865:Core/Src/deca_device.c ****  *
1866:Core/Src/deca_device.c ****  * output parameters
1867:Core/Src/deca_device.c ****  *
1868:Core/Src/deca_device.c ****  * no return value
1869:Core/Src/deca_device.c ****  */
1870:Core/Src/deca_device.c **** void dwt_readaccdata(uint8_t *buffer, uint16_t length, uint16_t accOffset)
1871:Core/Src/deca_device.c **** {
1872:Core/Src/deca_device.c ****     // Force on the ACC clocks if we are sequenced
1873:Core/Src/deca_device.c ****     dwt_or16bitoffsetreg(CLK_CTRL_ID, 0x0, CLK_CTRL_ACC_MCLK_EN_BIT_MASK | CLK_CTRL_ACC_CLK_EN_BIT_
1874:Core/Src/deca_device.c **** 
1875:Core/Src/deca_device.c ****     if ((accOffset + length) <= ACC_BUFFER_MAX_LEN)
ARM GAS  /tmp/cclDsldr.s 			page 51


1876:Core/Src/deca_device.c ****     {
1877:Core/Src/deca_device.c ****         if(accOffset <= REG_DIRECT_OFFSET_MAX_LEN)
1878:Core/Src/deca_device.c ****         {
1879:Core/Src/deca_device.c ****             /* Directly read data from the IC to the buffer */
1880:Core/Src/deca_device.c ****             dwt_readfromdevice(ACC_MEM_ID, accOffset, length, buffer);
1881:Core/Src/deca_device.c ****         }
1882:Core/Src/deca_device.c ****         else
1883:Core/Src/deca_device.c ****         {
1884:Core/Src/deca_device.c ****             /* Program the indirect offset registers B for specified offset to ACC */
1885:Core/Src/deca_device.c ****             dwt_write32bitreg(INDIRECT_ADDR_A_ID, (ACC_MEM_ID >> 16) );
1886:Core/Src/deca_device.c ****             dwt_write32bitreg(ADDR_OFFSET_A_ID,   accOffset);
1887:Core/Src/deca_device.c **** 
1888:Core/Src/deca_device.c ****             /* Indirectly read data from the IC to the buffer */
1889:Core/Src/deca_device.c ****             dwt_readfromdevice(INDIRECT_POINTER_A_ID, 0, length, buffer);
1890:Core/Src/deca_device.c ****         }
1891:Core/Src/deca_device.c ****     }
1892:Core/Src/deca_device.c ****     else
1893:Core/Src/deca_device.c ****     {
1894:Core/Src/deca_device.c ****         assert(0);
1895:Core/Src/deca_device.c ****     }
1896:Core/Src/deca_device.c **** 
1897:Core/Src/deca_device.c ****     // Revert clocks back
1898:Core/Src/deca_device.c ****     dwt_and16bitoffsetreg(CLK_CTRL_ID, 0x0, (uint16_t)~(CLK_CTRL_ACC_MCLK_EN_BIT_MASK | CLK_CTRL_AC
1899:Core/Src/deca_device.c **** }
1900:Core/Src/deca_device.c **** 
1901:Core/Src/deca_device.c **** /*! -----------------------------------------------------------------------------------------------
1902:Core/Src/deca_device.c ****  * @brief This is used to read the crystal offset (relating to the frequency offset of the far DW30
1903:Core/Src/deca_device.c ****  *        Note: the returned signed 16-bit number should be divided by by 2^26 to get ppm offset.
1904:Core/Src/deca_device.c ****  *
1905:Core/Src/deca_device.c ****  * input parameters - NONE
1906:Core/Src/deca_device.c ****  *
1907:Core/Src/deca_device.c ****  * return value - the (int12) signed offset value. (s[-15:-26])
1908:Core/Src/deca_device.c ****  *                A positive value means the local RX clock is running faster than the remote TX de
1909:Core/Src/deca_device.c ****  */
1910:Core/Src/deca_device.c **** int16_t dwt_readclockoffset(void)
1911:Core/Src/deca_device.c **** {
1912:Core/Src/deca_device.c ****     uint16_t  regval = 0 ;
1913:Core/Src/deca_device.c **** 
1914:Core/Src/deca_device.c ****     switch (pdw3000local->dblbuffon)  //if the flag is non zero - we are either accessing RX_BUFFER
1915:Core/Src/deca_device.c ****     {
1916:Core/Src/deca_device.c ****     case DBL_BUFF_ACCESS_BUFFER_1:
1917:Core/Src/deca_device.c ****         //!!! Assumes that Indirect pointer register B was already set. This is done in the dwt_set
1918:Core/Src/deca_device.c ****         regval = dwt_read16bitoffsetreg(INDIRECT_POINTER_B_ID, (BUF1_CIA_DIAG_0-BUF1_RX_FINFO)) & C
1919:Core/Src/deca_device.c ****         break;
1920:Core/Src/deca_device.c ****     case DBL_BUFF_ACCESS_BUFFER_0:
1921:Core/Src/deca_device.c ****         regval = dwt_read16bitoffsetreg(BUF0_CIA_DIAG_0, 0) & CIA_DIAG_0_COE_PPM_BIT_MASK;
1922:Core/Src/deca_device.c ****         break;
1923:Core/Src/deca_device.c ****     default:
1924:Core/Src/deca_device.c ****         regval = dwt_read16bitoffsetreg(CIA_DIAG_0_ID, 0) & CIA_DIAG_0_COE_PPM_BIT_MASK;
1925:Core/Src/deca_device.c ****         break;
1926:Core/Src/deca_device.c ****     }
1927:Core/Src/deca_device.c **** 
1928:Core/Src/deca_device.c ****     if (regval & B11_SIGN_EXTEND_TEST)
1929:Core/Src/deca_device.c ****     {
1930:Core/Src/deca_device.c ****         regval |= B11_SIGN_EXTEND_MASK;             // sign extend bit #12 to the whole short
1931:Core/Src/deca_device.c ****     }
1932:Core/Src/deca_device.c **** 
ARM GAS  /tmp/cclDsldr.s 			page 52


1933:Core/Src/deca_device.c ****     return (int16_t) regval ;
1934:Core/Src/deca_device.c **** }
1935:Core/Src/deca_device.c **** 
1936:Core/Src/deca_device.c **** /*! -----------------------------------------------------------------------------------------------
1937:Core/Src/deca_device.c ****  * @brief This is used to read the RX carrier integrator value (relating to the frequency offset of
1938:Core/Src/deca_device.c ****  *
1939:Core/Src/deca_device.c ****  * NOTE: This is a 21-bit signed quantity, the function sign extends the most significant bit, whic
1940:Core/Src/deca_device.c ****  *       (numbering from bit zero) to return a 32-bit signed integer value.
1941:Core/Src/deca_device.c ****  *
1942:Core/Src/deca_device.c ****  * input parameters - NONE
1943:Core/Src/deca_device.c ****  *
1944:Core/Src/deca_device.c ****  * return value - the (int32_t) signed carrier integrator value.
1945:Core/Src/deca_device.c ****  *                A positive value means the local RX clock is running slower than the remote TX de
1946:Core/Src/deca_device.c ****  */
1947:Core/Src/deca_device.c **** int32_t dwt_readcarrierintegrator(void)
1948:Core/Src/deca_device.c **** {
1949:Core/Src/deca_device.c ****     uint32_t  regval = 0 ;
1950:Core/Src/deca_device.c **** 
1951:Core/Src/deca_device.c ****     int     j ;
1952:Core/Src/deca_device.c ****     uint8_t   buffer[DRX_CARRIER_INT_LEN] ;
1953:Core/Src/deca_device.c **** 
1954:Core/Src/deca_device.c ****     /* Read 3 bytes into buffer (21-bit quantity) */
1955:Core/Src/deca_device.c ****     dwt_readfromdevice(DRX_DIAG3_ID, 0, DRX_CARRIER_INT_LEN, buffer);//
1956:Core/Src/deca_device.c **** 
1957:Core/Src/deca_device.c ****     for (j = 2 ; j >= 0 ; j --)  // arrange the three bytes into an unsigned integer value
1958:Core/Src/deca_device.c ****     {
1959:Core/Src/deca_device.c ****         regval = (regval << 8) + buffer[j] ;
1960:Core/Src/deca_device.c ****     }
1961:Core/Src/deca_device.c **** 
1962:Core/Src/deca_device.c ****     if (regval & B20_SIGN_EXTEND_TEST)
1963:Core/Src/deca_device.c ****     {
1964:Core/Src/deca_device.c ****         regval |= B20_SIGN_EXTEND_MASK; // sign extend bit #20 to whole word
1965:Core/Src/deca_device.c ****     }
1966:Core/Src/deca_device.c **** 
1967:Core/Src/deca_device.c ****     return (int32_t) regval ; // cast unsigned value to signed quantity.
1968:Core/Src/deca_device.c **** }
1969:Core/Src/deca_device.c **** 
1970:Core/Src/deca_device.c **** /*! -----------------------------------------------------------------------------------------------
1971:Core/Src/deca_device.c ****  * @brief this function reads the STS signal quality index
1972:Core/Src/deca_device.c ****  *
1973:Core/Src/deca_device.c ****  * input parameters
1974:Core/Src/deca_device.c ****  * @param rxStsQualityIndex - the (int16_t) signed STS quality index value.
1975:Core/Src/deca_device.c ****  *
1976:Core/Src/deca_device.c ****  * output parameters
1977:Core/Src/deca_device.c ****  * return value - >=0 for good and < 0 if bad STS quality.
1978:Core/Src/deca_device.c ****  *
1979:Core/Src/deca_device.c ****  * Note: For the 64 MHz PRF if value is >= 90% of the STS length then we can assume good STS recept
1980:Core/Src/deca_device.c ****  *       Otherwise the STS timestamp may not be accurate.
1981:Core/Src/deca_device.c ****  */
1982:Core/Src/deca_device.c **** int dwt_readstsquality(int16_t* rxStsQualityIndex)
1983:Core/Src/deca_device.c **** {
1984:Core/Src/deca_device.c ****     uint16_t preambleCount;
1985:Core/Src/deca_device.c **** 
1986:Core/Src/deca_device.c ****     //read STS preamble count value
1987:Core/Src/deca_device.c ****     preambleCount = dwt_read16bitoffsetreg(STS_STS_ID, 0) & STS_STS_ACC_QUAL_BIT_MASK; //  dwt_read
1988:Core/Src/deca_device.c **** 
1989:Core/Src/deca_device.c ****     if(preambleCount & STS_ACC_CP_QUAL_SIGNTST)
ARM GAS  /tmp/cclDsldr.s 			page 53


1990:Core/Src/deca_device.c ****         preambleCount |= STS_ACC_CP_QUAL_SIGNEXT;
1991:Core/Src/deca_device.c **** 
1992:Core/Src/deca_device.c ****     *rxStsQualityIndex = (int16_t)preambleCount;
1993:Core/Src/deca_device.c **** 
1994:Core/Src/deca_device.c ****     //determine if the STS Rx quality is good or bad (return >=0 for good and < 0 if bad)
1995:Core/Src/deca_device.c ****     return (int)((int16_t)preambleCount - pdw3000local->ststhreshold);
1996:Core/Src/deca_device.c **** }
1997:Core/Src/deca_device.c **** 
1998:Core/Src/deca_device.c **** /*! -----------------------------------------------------------------------------------------------
1999:Core/Src/deca_device.c ****  * @brief this function reads the STS status
2000:Core/Src/deca_device.c ****  *
2001:Core/Src/deca_device.c ****  * input parameters
2002:Core/Src/deca_device.c ****  * @param stsStatus - the (uint16_t) STS status value. 9 bits of this buffer are populated with var
2003:Core/Src/deca_device.c ****  *                    remaining 7 bits are ignored.
2004:Core/Src/deca_device.c ****  * @param sts_num   - 0 for 1st STS, 1 for 2nd STS (2nd only valid when PDOA Mode 3 is used)
2005:Core/Src/deca_device.c ****  *
2006:Core/Src/deca_device.c ****  * output parameters
2007:Core/Src/deca_device.c ****  * return value DWT_SUCCESS for good/valid STS status, DWT_ERROR if bad STS status.
2008:Core/Src/deca_device.c ****  */
2009:Core/Src/deca_device.c **** int dwt_readstsstatus(uint16_t* stsStatus, int sts_num)
2010:Core/Src/deca_device.c **** {
2011:Core/Src/deca_device.c ****     int ret = DWT_SUCCESS;
2012:Core/Src/deca_device.c ****     uint32_t stsStatusRegAdd = (sts_num == 1) ? BUF0_STS1_STAT : BUF0_STS_STAT;
2013:Core/Src/deca_device.c ****     uint32_t stsStatusRegAddN = (sts_num == 1) ? STS1_TOA_HI_ID : STS_TOA_HI_ID;
2014:Core/Src/deca_device.c **** 
2015:Core/Src/deca_device.c ****     switch (pdw3000local->dblbuffon) //check if in double buffer mode and if so which buffer host i
2016:Core/Src/deca_device.c ****     {
2017:Core/Src/deca_device.c ****     case DBL_BUFF_ACCESS_BUFFER_1:
2018:Core/Src/deca_device.c ****         //!!! Assumes that Indirect pointer register B was already set. This is done in the dwt_set
2019:Core/Src/deca_device.c ****         *stsStatus = dwt_read16bitoffsetreg(INDIRECT_POINTER_B_ID, (stsStatusRegAdd-BUF0_RX_FINFO+2
2020:Core/Src/deca_device.c ****         break;
2021:Core/Src/deca_device.c ****     case DBL_BUFF_ACCESS_BUFFER_0:
2022:Core/Src/deca_device.c ****         *stsStatus = (dwt_read16bitoffsetreg(stsStatusRegAdd, 2) >> 7);
2023:Core/Src/deca_device.c ****         break;
2024:Core/Src/deca_device.c ****     default:
2025:Core/Src/deca_device.c ****         *stsStatus = (dwt_read16bitoffsetreg(stsStatusRegAddN, 2) >> 7);
2026:Core/Src/deca_device.c ****         break;
2027:Core/Src/deca_device.c ****     }
2028:Core/Src/deca_device.c **** 
2029:Core/Src/deca_device.c ****     //determine if the STS is ok
2030:Core/Src/deca_device.c ****     if (*stsStatus != 0 /*& DWT_SFD_COUNT_WARN*/)
2031:Core/Src/deca_device.c ****         ret = DWT_ERROR;
2032:Core/Src/deca_device.c **** 
2033:Core/Src/deca_device.c ****     return ret;
2034:Core/Src/deca_device.c **** }
2035:Core/Src/deca_device.c **** /*! -----------------------------------------------------------------------------------------------
2036:Core/Src/deca_device.c ****  * @brief this function reads the dgc decision when RX_TUNING is enabled
2037:Core/Src/deca_device.c ****  *
2038:Core/Src/deca_device.c ****  * input parameters
2039:Core/Src/deca_device.c ****  * no input parameters
2040:Core/Src/deca_device.c ****  *
2041:Core/Src/deca_device.c ****  * output parameters
2042:Core/Src/deca_device.c ****  *
2043:Core/Src/deca_device.c ****  * @param uint8_t The index value to be used in RX level and FP level formulas // str 80
2044:Core/Src/deca_device.c ****  */
2045:Core/Src/deca_device.c **** 
2046:Core/Src/deca_device.c **** 
ARM GAS  /tmp/cclDsldr.s 			page 54


2047:Core/Src/deca_device.c **** 
2048:Core/Src/deca_device.c **** 
2049:Core/Src/deca_device.c **** 
2050:Core/Src/deca_device.c **** 
2051:Core/Src/deca_device.c **** 
2052:Core/Src/deca_device.c **** /*! -----------------------------------------------------------------------------------------------
2053:Core/Src/deca_device.c ****  * @brief this function reads the RX signal quality diagnostic data
2054:Core/Src/deca_device.c ****  *
2055:Core/Src/deca_device.c ****  * input parameters
2056:Core/Src/deca_device.c ****  * @param diagnostics - diagnostic structure pointer, this will contain the diagnostic data read fr
2057:Core/Src/deca_device.c ****  *
2058:Core/Src/deca_device.c ****  * output parameters
2059:Core/Src/deca_device.c ****  *
2060:Core/Src/deca_device.c ****  * no return value
2061:Core/Src/deca_device.c ****  */
2062:Core/Src/deca_device.c **** void dwt_readdiagnostics(dwt_rxdiag_t *diagnostics)
2063:Core/Src/deca_device.c **** {
2064:Core/Src/deca_device.c ****     int i;
2065:Core/Src/deca_device.c ****     int offset_0xd;
2066:Core/Src/deca_device.c ****     int offset_buff = BUF0_RX_FINFO;
2067:Core/Src/deca_device.c ****     uint8_t temp[DB_MAX_DIAG_SIZE];  //address from 0xC0000 to 0xD0068 (108*2 bytes) - when using n
2068:Core/Src/deca_device.c **** 
2069:Core/Src/deca_device.c ****     //minimal diagnostics - 40 bytes
2070:Core/Src/deca_device.c **** 
2071:Core/Src/deca_device.c ****     switch (pdw3000local->dblbuffon) //check if in double buffer mode and if so which buffer host i
2072:Core/Src/deca_device.c ****     {
2073:Core/Src/deca_device.c ****     case DBL_BUFF_ACCESS_BUFFER_1:
2074:Core/Src/deca_device.c ****         offset_buff = BUF1_RX_FINFO;
2075:Core/Src/deca_device.c ****         __attribute__ ((fallthrough));
2076:Core/Src/deca_device.c ****         //no break
2077:Core/Src/deca_device.c ****     case DBL_BUFF_ACCESS_BUFFER_0:
2078:Core/Src/deca_device.c **** 
2079:Core/Src/deca_device.c ****         if (pdw3000local->dblbuffon == DBL_BUFF_ACCESS_BUFFER_1)
2080:Core/Src/deca_device.c ****         {
2081:Core/Src/deca_device.c ****             /* Program the indirect offset registers B for specified offset to swinging set buffer 
2082:Core/Src/deca_device.c ****             //!!! Assumes that Indirect pointer register B was already set. This is done in the dwt
2083:Core/Src/deca_device.c ****             /* Indirectly read data from the IC to the buffer */
2084:Core/Src/deca_device.c ****             if (pdw3000local->cia_diagnostic & DW_CIA_DIAG_LOG_MAX)
2085:Core/Src/deca_device.c ****             {
2086:Core/Src/deca_device.c ****                 dwt_readfromdevice(INDIRECT_POINTER_B_ID, 0, DB_MAX_DIAG_SIZE, temp);
2087:Core/Src/deca_device.c ****             }
2088:Core/Src/deca_device.c ****             else if (pdw3000local->cia_diagnostic & DW_CIA_DIAG_LOG_MID)
2089:Core/Src/deca_device.c ****             {
2090:Core/Src/deca_device.c ****                 dwt_readfromdevice(INDIRECT_POINTER_B_ID, 0, DB_MID_DIAG_SIZE, temp);
2091:Core/Src/deca_device.c ****             }
2092:Core/Src/deca_device.c ****             else
2093:Core/Src/deca_device.c ****             {
2094:Core/Src/deca_device.c ****                 dwt_readfromdevice(INDIRECT_POINTER_B_ID, 0, DB_MIN_DIAG_SIZE, temp);
2095:Core/Src/deca_device.c ****             }
2096:Core/Src/deca_device.c ****         }
2097:Core/Src/deca_device.c ****         else
2098:Core/Src/deca_device.c ****         {
2099:Core/Src/deca_device.c ****             if (pdw3000local->cia_diagnostic & DW_CIA_DIAG_LOG_MAX)
2100:Core/Src/deca_device.c ****             {
2101:Core/Src/deca_device.c ****                 dwt_readfromdevice(offset_buff, 0, DB_MAX_DIAG_SIZE, temp);
2102:Core/Src/deca_device.c ****             }
2103:Core/Src/deca_device.c ****             else if (pdw3000local->cia_diagnostic & DW_CIA_DIAG_LOG_MID)
ARM GAS  /tmp/cclDsldr.s 			page 55


2104:Core/Src/deca_device.c ****             {
2105:Core/Src/deca_device.c ****                 dwt_readfromdevice(offset_buff, 0, DB_MID_DIAG_SIZE, temp);
2106:Core/Src/deca_device.c ****             }
2107:Core/Src/deca_device.c ****             else
2108:Core/Src/deca_device.c ****             {
2109:Core/Src/deca_device.c ****                 dwt_readfromdevice(offset_buff, 0, DB_MIN_DIAG_SIZE, temp);
2110:Core/Src/deca_device.c ****             }
2111:Core/Src/deca_device.c ****         }
2112:Core/Src/deca_device.c **** 
2113:Core/Src/deca_device.c ****         for (i = 0; i < (CIA_I_RX_TIME_LEN+1); i++)
2114:Core/Src/deca_device.c ****         {
2115:Core/Src/deca_device.c ****             diagnostics->tdoa[i] = temp[i + BUF0_TDOA - BUF0_RX_FINFO]; // timestamp difference of 
2116:Core/Src/deca_device.c ****         }
2117:Core/Src/deca_device.c **** 
2118:Core/Src/deca_device.c ****         diagnostics->xtalOffset = ((int16_t)temp[BUF0_CIA_DIAG_0 - BUF0_RX_FINFO + 1] << 8 | temp[B
2119:Core/Src/deca_device.c **** 
2120:Core/Src/deca_device.c ****         diagnostics->pdoa = ((int16_t)temp[BUF0_PDOA - BUF0_RX_FINFO + 3] << 8 | temp[BUF0_PDOA - B
2121:Core/Src/deca_device.c ****         if (diagnostics->pdoa & 0x2000) diagnostics->pdoa |= 0xC000; //sign extend
2122:Core/Src/deca_device.c **** 
2123:Core/Src/deca_device.c ****         diagnostics->ipatovAccumCount = ((uint16_t)temp[BUF0_IP_DIAG_12 - BUF0_RX_FINFO + 1] << 8 |
2124:Core/Src/deca_device.c **** 
2125:Core/Src/deca_device.c ****         if (pdw3000local->cia_diagnostic & DW_CIA_DIAG_LOG_MIN)
2126:Core/Src/deca_device.c ****             break;
2127:Core/Src/deca_device.c **** 
2128:Core/Src/deca_device.c ****         for (i = 0; i < CIA_I_RX_TIME_LEN; i++)
2129:Core/Src/deca_device.c ****         {
2130:Core/Src/deca_device.c ****             diagnostics->ipatovRxTime[i] = temp[i + BUF0_IP_TS - BUF0_RX_FINFO];  // RX timestamp f
2131:Core/Src/deca_device.c ****             diagnostics->stsRxTime[i] = temp[i + BUF0_STS_TS - BUF0_RX_FINFO];    // RX timestamp f
2132:Core/Src/deca_device.c ****             diagnostics->sts2RxTime[i] = temp[i + BUF0_STS1_TS - BUF0_RX_FINFO];  // RX timestamp f
2133:Core/Src/deca_device.c ****         }
2134:Core/Src/deca_device.c ****         diagnostics->ipatovRxStatus = temp[BUF0_IP_TS - BUF0_RX_FINFO + CIA_C_STAT_OFFSET];        
2135:Core/Src/deca_device.c ****         diagnostics->ipatovPOA = (uint16_t)temp[BUF0_IP_TS - BUF0_RX_FINFO + 2] << 8 | temp[BUF0_IP
2136:Core/Src/deca_device.c **** 
2137:Core/Src/deca_device.c ****         diagnostics->stsRxStatus = temp[BUF0_STS_TS - BUF0_RX_FINFO + CIA_C_STAT_OFFSET];       // 
2138:Core/Src/deca_device.c ****         diagnostics->stsPOA = (uint16_t)temp[BUF0_STS_TS - BUF0_RX_FINFO + 2] << 8 | temp[BUF0_STS_
2139:Core/Src/deca_device.c **** 
2140:Core/Src/deca_device.c ****         diagnostics->sts2RxStatus = temp[BUF0_STS1_TS - BUF0_RX_FINFO + CIA_C_STAT_OFFSET];       /
2141:Core/Src/deca_device.c ****         diagnostics->sts2POA = (uint16_t)temp[BUF0_STS1_TS - BUF0_RX_FINFO + 2] << 8 | temp[BUF0_ST
2142:Core/Src/deca_device.c **** 
2143:Core/Src/deca_device.c ****         if (pdw3000local->cia_diagnostic & DW_CIA_DIAG_LOG_MID)
2144:Core/Src/deca_device.c ****             break;
2145:Core/Src/deca_device.c **** 
2146:Core/Src/deca_device.c ****         diagnostics->ciaDiag1 = ((uint32_t)temp[BUF0_CIA_DIAG_1 - BUF0_RX_FINFO + 3] << 24 | (uint3
2147:Core/Src/deca_device.c ****             | (uint32_t)temp[BUF0_CIA_DIAG_1 - BUF0_RX_FINFO + 1] << 8 | (uint32_t)temp[BUF0_CIA_DI
2148:Core/Src/deca_device.c **** 
2149:Core/Src/deca_device.c ****                                                                                                    
2150:Core/Src/deca_device.c ****         diagnostics->ipatovPeak = ((uint32_t)temp[BUF0_IP_DIAG_0 - BUF0_RX_FINFO + 3] << 24 | (uint
2151:Core/Src/deca_device.c ****             | (uint32_t)temp[BUF0_IP_DIAG_0 - BUF0_RX_FINFO + 1] << 8 | (uint32_t)temp[BUF0_IP_DIAG
2152:Core/Src/deca_device.c ****         diagnostics->ipatovPower = ((uint32_t)temp[BUF0_IP_DIAG_1 - BUF0_RX_FINFO + 3] << 24 | (uin
2153:Core/Src/deca_device.c ****             | (uint32_t)temp[BUF0_IP_DIAG_1 - BUF0_RX_FINFO + 1] << 8 | (uint32_t)temp[BUF0_IP_DIAG
2154:Core/Src/deca_device.c ****         diagnostics->ipatovF1 = ((uint32_t)temp[BUF0_IP_DIAG_2 - BUF0_RX_FINFO + 3] << 24 | (uint32
2155:Core/Src/deca_device.c ****             | (uint32_t)temp[BUF0_IP_DIAG_2 - BUF0_RX_FINFO + 1] << 8 | (uint32_t)temp[BUF0_IP_DIAG
2156:Core/Src/deca_device.c ****         diagnostics->ipatovF2 = ((uint32_t)temp[BUF0_IP_DIAG_3 - BUF0_RX_FINFO + 3] << 24 | (uint32
2157:Core/Src/deca_device.c ****             | (uint32_t)temp[BUF0_IP_DIAG_3 - BUF0_RX_FINFO + 1] << 8 | (uint32_t)temp[BUF0_IP_DIAG
2158:Core/Src/deca_device.c ****         diagnostics->ipatovF3 = ((uint32_t)temp[BUF0_IP_DIAG_4 - BUF0_RX_FINFO + 3] << 24 | (uint32
2159:Core/Src/deca_device.c ****             | (uint32_t)temp[BUF0_IP_DIAG_4 - BUF0_RX_FINFO + 1] << 8 | (uint32_t)temp[BUF0_IP_DIAG
2160:Core/Src/deca_device.c ****         diagnostics->ipatovFpIndex = (uint16_t)temp[BUF0_IP_DIAG_8 - BUF0_RX_FINFO + 1] << 8 | temp
ARM GAS  /tmp/cclDsldr.s 			page 56


2161:Core/Src/deca_device.c ****         
2162:Core/Src/deca_device.c ****                                                                                                    
2163:Core/Src/deca_device.c ****         diagnostics->stsPeak = ((uint32_t)temp[BUF0_STS_DIAG_0 - BUF0_RX_FINFO + 3] << 24 | (uint32
2164:Core/Src/deca_device.c ****             | (uint32_t)temp[BUF0_STS_DIAG_0 - BUF0_RX_FINFO + 1] << 8 | (uint32_t)temp[BUF0_STS_DI
2165:Core/Src/deca_device.c ****         diagnostics->stsPower = ((uint16_t)temp[BUF0_STS_DIAG_1 - BUF0_RX_FINFO + 1] << 8 | temp[BU
2166:Core/Src/deca_device.c ****         diagnostics->stsF1 = ((uint32_t)temp[BUF0_STS_DIAG_2 - BUF0_RX_FINFO + 3] << 24 | (uint32_t
2167:Core/Src/deca_device.c ****             | (uint32_t)temp[BUF0_STS_DIAG_2 - BUF0_RX_FINFO + 1] << 8 | (uint32_t)temp[BUF0_STS_DI
2168:Core/Src/deca_device.c ****         diagnostics->stsF2 = ((uint32_t)temp[BUF0_STS_DIAG_3 - BUF0_RX_FINFO + 3] << 24 | (uint32_t
2169:Core/Src/deca_device.c ****             | (uint32_t)temp[BUF0_STS_DIAG_3 - BUF0_RX_FINFO + 1] << 8 | (uint32_t)temp[BUF0_STS_DI
2170:Core/Src/deca_device.c ****         diagnostics->stsF3 = ((uint32_t)temp[BUF0_STS_DIAG_4 - BUF0_RX_FINFO + 3] << 24 | (uint32_t
2171:Core/Src/deca_device.c ****             | (uint32_t)temp[BUF0_STS_DIAG_4 - BUF0_RX_FINFO + 1] << 8 | (uint32_t)temp[BUF0_STS_DI
2172:Core/Src/deca_device.c ****         diagnostics->stsFpIndex = ((uint16_t)temp[BUF0_STS_DIAG_8 - BUF0_RX_FINFO + 1] << 8 | temp[
2173:Core/Src/deca_device.c ****         diagnostics->stsAccumCount = ((uint16_t)temp[BUF0_STS_DIAG_12 - BUF0_RX_FINFO + 1] << 8 | t
2174:Core/Src/deca_device.c **** 
2175:Core/Src/deca_device.c ****                                                                                                    
2176:Core/Src/deca_device.c ****         diagnostics->sts2Peak = ((uint32_t)temp[BUF0_STS1_DIAG_0 - BUF0_RX_FINFO + 3] << 24 | (uint
2177:Core/Src/deca_device.c ****             | (uint32_t)temp[BUF0_STS1_DIAG_0 - BUF0_RX_FINFO + 1] << 8 | (uint32_t)temp[BUF0_STS1_
2178:Core/Src/deca_device.c ****         diagnostics->sts2Power = ((uint16_t)temp[BUF0_STS1_DIAG_1 - BUF0_RX_FINFO + 1] << 8 | temp[
2179:Core/Src/deca_device.c ****         diagnostics->sts2F1 = ((uint32_t)temp[BUF0_STS1_DIAG_2 - BUF0_RX_FINFO + 3] << 24 | (uint32
2180:Core/Src/deca_device.c ****             | (uint32_t)temp[BUF0_STS1_DIAG_2 - BUF0_RX_FINFO + 1] << 8 | (uint32_t)temp[BUF0_STS1_
2181:Core/Src/deca_device.c ****         diagnostics->sts2F2 = ((uint32_t)temp[BUF0_STS1_DIAG_3 - BUF0_RX_FINFO + 3] << 24 | (uint32
2182:Core/Src/deca_device.c ****             | (uint32_t)temp[BUF0_STS1_DIAG_3 - BUF0_RX_FINFO + 1] << 8 | (uint32_t)temp[BUF0_STS1_
2183:Core/Src/deca_device.c ****         diagnostics->sts2F3 = ((uint32_t)temp[BUF0_STS1_DIAG_4 - BUF0_RX_FINFO + 3] << 24 | (uint32
2184:Core/Src/deca_device.c ****             | (uint32_t)temp[BUF0_STS1_DIAG_4 - BUF0_RX_FINFO + 1] << 8 | (uint32_t)temp[BUF0_STS1_
2185:Core/Src/deca_device.c ****         diagnostics->sts2FpIndex = ((uint16_t)temp[BUF0_STS1_DIAG_8 - BUF0_RX_FINFO + 1] << 8 | tem
2186:Core/Src/deca_device.c ****         diagnostics->sts2AccumCount = ((uint16_t)temp[BUF0_STS1_DIAG_12 - BUF0_RX_FINFO + 1] << 8 |
2187:Core/Src/deca_device.c **** 
2188:Core/Src/deca_device.c **** 
2189:Core/Src/deca_device.c **** 
2190:Core/Src/deca_device.c ****         break;
2191:Core/Src/deca_device.c **** 
2192:Core/Src/deca_device.c ****     default:  //double buffer is off
2193:Core/Src/deca_device.c **** 
2194:Core/Src/deca_device.c ****         if (pdw3000local->cia_diagnostic & DW_CIA_DIAG_LOG_ALL)
2195:Core/Src/deca_device.c ****         {
2196:Core/Src/deca_device.c ****             dwt_readfromdevice(IP_TOA_LO_ID, 0, 108, temp);   //read form 0xC0000 space  (108 bytes
2197:Core/Src/deca_device.c ****             dwt_readfromdevice(STS_DIAG_4_ID, 0, 108, &temp[108]);  //read from 0xD0000 space  (108
2198:Core/Src/deca_device.c ****         }
2199:Core/Src/deca_device.c ****         else
2200:Core/Src/deca_device.c ****         {
2201:Core/Src/deca_device.c ****             dwt_readfromdevice(IP_TOA_LO_ID, 0, 40, temp);
2202:Core/Src/deca_device.c ****         }
2203:Core/Src/deca_device.c **** 
2204:Core/Src/deca_device.c ****         for (i = 0; i < CIA_I_RX_TIME_LEN; i++)
2205:Core/Src/deca_device.c ****         {
2206:Core/Src/deca_device.c ****             diagnostics->ipatovRxTime[i] = temp[i];                                 // RX timestamp
2207:Core/Src/deca_device.c ****             diagnostics->stsRxTime[i] = temp[i + STS_TOA_LO_ID - IP_TOA_LO_ID];  // RX timestamp fr
2208:Core/Src/deca_device.c ****             diagnostics->sts2RxTime[i] = temp[i + STS1_TOA_LO_ID - IP_TOA_LO_ID]; // RX timestamp f
2209:Core/Src/deca_device.c ****             diagnostics->tdoa[i] = temp[i + CIA_TDOA_0_ID - IP_TOA_LO_ID]; // timestamp difference 
2210:Core/Src/deca_device.c ****         }
2211:Core/Src/deca_device.c ****         diagnostics->tdoa[5] = temp[5 + CIA_TDOA_0_ID - IP_TOA_LO_ID];
2212:Core/Src/deca_device.c **** 
2213:Core/Src/deca_device.c ****         diagnostics->ipatovRxStatus = temp[IP_TOA_HI_ID - IP_TOA_LO_ID + CIA_I_STAT_OFFSET];       
2214:Core/Src/deca_device.c ****         diagnostics->ipatovPOA = (uint16_t)temp[IP_TOA_HI_ID - IP_TOA_LO_ID + 2] << 8 | temp[IP_TOA
2215:Core/Src/deca_device.c **** 
2216:Core/Src/deca_device.c ****         diagnostics->stsRxStatus = ((uint16_t)temp[STS_TOA_HI_ID - IP_TOA_LO_ID + CIA_C_STAT_OFFSET
2217:Core/Src/deca_device.c ****         diagnostics->stsPOA = (uint16_t)temp[STS_TOA_HI_ID - IP_TOA_LO_ID + 2] << 8 | temp[STS_TOA_
ARM GAS  /tmp/cclDsldr.s 			page 57


2218:Core/Src/deca_device.c **** 
2219:Core/Src/deca_device.c ****         diagnostics->sts2RxStatus = ((uint16_t)temp[STS1_TOA_HI_ID - IP_TOA_LO_ID + CIA_C_STAT_OFFS
2220:Core/Src/deca_device.c ****         diagnostics->sts2POA = (uint16_t)temp[STS1_TOA_HI_ID - IP_TOA_LO_ID + 2] << 8 | temp[STS1_T
2221:Core/Src/deca_device.c **** 
2222:Core/Src/deca_device.c ****         diagnostics->pdoa = ((int16_t)temp[CIA_TDOA_1_PDOA_ID - IP_TOA_LO_ID + 3] << 8 | temp[CIA_T
2223:Core/Src/deca_device.c ****         if (diagnostics->pdoa & 0x2000) diagnostics->pdoa |= 0xC000; //sign extend
2224:Core/Src/deca_device.c **** 
2225:Core/Src/deca_device.c ****         diagnostics->xtalOffset = ((int16_t)temp[CIA_DIAG_0_ID - IP_TOA_LO_ID + 1] << 8 | temp[CIA_
2226:Core/Src/deca_device.c **** 
2227:Core/Src/deca_device.c ****         diagnostics->ciaDiag1 = ((uint32_t) temp[CIA_DIAG_1_ID - IP_TOA_LO_ID + 3] << 24 | (uint32_
2228:Core/Src/deca_device.c ****             | (uint32_t)temp[CIA_DIAG_1_ID - IP_TOA_LO_ID + 1] << 8 | (uint32_t)temp[CIA_DIAG_1_ID 
2229:Core/Src/deca_device.c **** 
2230:Core/Src/deca_device.c ****         if ((pdw3000local->cia_diagnostic & DW_CIA_DIAG_LOG_ALL) == 0)
2231:Core/Src/deca_device.c ****             break; //break here is only logging minimal diagnositcs
2232:Core/Src/deca_device.c **** 
2233:Core/Src/deca_device.c ****         //IP
2234:Core/Src/deca_device.c ****         diagnostics->ipatovPeak = ((uint32_t)temp[IP_DIAG_0_ID - IP_TOA_LO_ID + 3] << 24 | (uint32_
2235:Core/Src/deca_device.c ****             | (uint32_t)temp[IP_DIAG_0_ID - IP_TOA_LO_ID + 1] << 8 | (uint32_t)temp[IP_DIAG_0_ID - 
2236:Core/Src/deca_device.c ****         diagnostics->ipatovPower = ((uint32_t)temp[IP_DIAG_1_ID - IP_TOA_LO_ID + 3] << 24 | (uint32
2237:Core/Src/deca_device.c ****             | (uint32_t)temp[IP_DIAG_1_ID - IP_TOA_LO_ID + 1] << 8 | (uint32_t)temp[IP_DIAG_1_ID - 
2238:Core/Src/deca_device.c ****         diagnostics->ipatovF1 = ((uint32_t)temp[IP_DIAG_2_ID - IP_TOA_LO_ID + 3] << 24 | (uint32_t)
2239:Core/Src/deca_device.c ****             | (uint32_t)temp[IP_DIAG_2_ID - IP_TOA_LO_ID + 1] << 8 | (uint32_t)temp[IP_DIAG_2_ID - 
2240:Core/Src/deca_device.c ****         diagnostics->ipatovF2 = ((uint32_t)temp[IP_DIAG_3_ID - IP_TOA_LO_ID + 3] << 24 | (uint32_t)
2241:Core/Src/deca_device.c ****             | (uint32_t)temp[IP_DIAG_3_ID - IP_TOA_LO_ID + 1] << 8 | (uint32_t)temp[IP_DIAG_3_ID - 
2242:Core/Src/deca_device.c ****         diagnostics->ipatovF3 = ((uint32_t)temp[IP_DIAG_4_ID - IP_TOA_LO_ID + 3] << 24 | (uint32_t)
2243:Core/Src/deca_device.c ****             | (uint32_t)temp[IP_DIAG_4_ID - IP_TOA_LO_ID + 1] << 8 | (uint32_t)temp[IP_DIAG_4_ID - 
2244:Core/Src/deca_device.c ****         diagnostics->ipatovFpIndex = (uint16_t)temp[IP_DIAG_8_ID - IP_TOA_LO_ID + 1] << 8 | temp[IP
2245:Core/Src/deca_device.c ****         diagnostics->ipatovAccumCount = ((uint16_t)temp[IP_DIAG_12_ID - IP_TOA_LO_ID + 1] << 8 | te
2246:Core/Src/deca_device.c **** 
2247:Core/Src/deca_device.c ****         //STS 1
2248:Core/Src/deca_device.c ****         diagnostics->stsPeak = ((uint32_t)temp[STS_DIAG_0_ID - IP_TOA_LO_ID + 3] << 24 | (uint32_t)
2249:Core/Src/deca_device.c ****             | (uint32_t)temp[STS_DIAG_0_ID - IP_TOA_LO_ID + 1] << 8 | (uint32_t)temp[STS_DIAG_0_ID 
2250:Core/Src/deca_device.c ****         diagnostics->stsPower = ((uint16_t)temp[STS_DIAG_1_ID - IP_TOA_LO_ID + 1] << 8 | temp[STS_D
2251:Core/Src/deca_device.c ****         diagnostics->stsF1 = ((uint32_t)temp[STS_DIAG_2_ID - IP_TOA_LO_ID + 3] << 24 | (uint32_t)te
2252:Core/Src/deca_device.c ****             | (uint32_t)temp[STS_DIAG_2_ID - IP_TOA_LO_ID + 1] << 8 | (uint32_t)temp[STS_DIAG_2_ID 
2253:Core/Src/deca_device.c ****         diagnostics->stsF2 = ((uint32_t)temp[STS_DIAG_3_ID - IP_TOA_LO_ID + 3] << 24 | (uint32_t)te
2254:Core/Src/deca_device.c ****             | (uint32_t)temp[STS_DIAG_3_ID - IP_TOA_LO_ID + 1] << 8 | (uint32_t)temp[STS_DIAG_3_ID 
2255:Core/Src/deca_device.c **** 
2256:Core/Src/deca_device.c **** 
2257:Core/Src/deca_device.c ****         offset_0xd = 0x6c; // there are 0x6C bytes in 0xC0000 base before we enter 0xD0000
2258:Core/Src/deca_device.c **** 
2259:Core/Src/deca_device.c ****         diagnostics->stsF3 = ((uint32_t)temp[STS_DIAG_4_ID - STS_DIAG_4_ID + offset_0xd + 3] << 24 
2260:Core/Src/deca_device.c ****             | (uint32_t)temp[STS_DIAG_4_ID - STS_DIAG_4_ID + offset_0xd + 1] << 8 | (uint32_t)temp[
2261:Core/Src/deca_device.c ****         diagnostics->stsFpIndex = ((uint16_t)temp[STS_DIAG_8_ID - STS_DIAG_4_ID + offset_0xd + 1] <
2262:Core/Src/deca_device.c ****         diagnostics->stsAccumCount = ((uint16_t)temp[STS_DIAG_12_ID - STS_DIAG_4_ID + offset_0xd + 
2263:Core/Src/deca_device.c **** 
2264:Core/Src/deca_device.c ****         //STS 2
2265:Core/Src/deca_device.c ****         diagnostics->sts2Peak = ((uint32_t)temp[STS1_DIAG_0_ID - STS_DIAG_4_ID + offset_0xd + 3] <<
2266:Core/Src/deca_device.c ****             | (uint32_t)temp[STS1_DIAG_0_ID - STS_DIAG_4_ID + offset_0xd + 1] << 8 | (uint32_t)temp
2267:Core/Src/deca_device.c ****         diagnostics->sts2Power = ((uint16_t)temp[STS1_DIAG_1_ID - STS_DIAG_4_ID + offset_0xd + 1] <
2268:Core/Src/deca_device.c ****         diagnostics->sts2F1 = ((uint32_t)temp[STS1_DIAG_2_ID - STS_DIAG_4_ID + offset_0xd + 3] << 2
2269:Core/Src/deca_device.c ****             | (uint32_t)temp[STS1_DIAG_2_ID - STS_DIAG_4_ID + offset_0xd + 1] << 8 | (uint32_t)temp
2270:Core/Src/deca_device.c ****         diagnostics->sts2F2 = ((uint32_t)temp[STS1_DIAG_3_ID - STS_DIAG_4_ID + offset_0xd + 3] << 2
2271:Core/Src/deca_device.c ****             | (uint32_t)temp[STS1_DIAG_3_ID - STS_DIAG_4_ID + offset_0xd + 1] << 8 | (uint32_t)temp
2272:Core/Src/deca_device.c ****         diagnostics->sts2F3 = ((uint32_t)temp[STS1_DIAG_4_ID - STS_DIAG_4_ID + offset_0xd + 3] << 2
2273:Core/Src/deca_device.c ****             | (uint32_t)temp[STS1_DIAG_4_ID - STS_DIAG_4_ID + offset_0xd + 1] << 8 | (uint32_t)temp
2274:Core/Src/deca_device.c ****         diagnostics->sts2FpIndex = ((uint16_t)temp[STS1_DIAG_8_ID - STS_DIAG_4_ID + offset_0xd + 1]
ARM GAS  /tmp/cclDsldr.s 			page 58


2275:Core/Src/deca_device.c ****         diagnostics->sts2AccumCount = ((uint16_t)temp[STS1_DIAG_12_ID - STS_DIAG_4_ID + offset_0xd 
2276:Core/Src/deca_device.c ****         break;
2277:Core/Src/deca_device.c ****     }
2278:Core/Src/deca_device.c **** }
2279:Core/Src/deca_device.c **** 
2280:Core/Src/deca_device.c **** /*! -----------------------------------------------------------------------------------------------
2281:Core/Src/deca_device.c ****  * @brief This is used to read the TX timestamp (adjusted with the programmed antenna delay)
2282:Core/Src/deca_device.c ****  *
2283:Core/Src/deca_device.c ****  * input parameters
2284:Core/Src/deca_device.c ****  * @param timestamp - a pointer to a 5-byte buffer which will store the read TX timestamp time
2285:Core/Src/deca_device.c ****  *
2286:Core/Src/deca_device.c ****  * output parameters - the timestamp buffer will contain the value after the function call
2287:Core/Src/deca_device.c ****  *
2288:Core/Src/deca_device.c ****  * no return value
2289:Core/Src/deca_device.c ****  */
2290:Core/Src/deca_device.c **** void dwt_readtxtimestamp(uint8_t * timestamp)
2291:Core/Src/deca_device.c **** {
2292:Core/Src/deca_device.c ****     dwt_readfromdevice(TX_TIME_LO_ID, 0, TX_TIME_TX_STAMP_LEN, timestamp); // Read bytes directly i
2293:Core/Src/deca_device.c **** }
2294:Core/Src/deca_device.c **** 
2295:Core/Src/deca_device.c **** /*! -----------------------------------------------------------------------------------------------
2296:Core/Src/deca_device.c ****  * @brief This is used to read the high 32-bits of the TX timestamp (adjusted with the programmed a
2297:Core/Src/deca_device.c ****  *
2298:Core/Src/deca_device.c ****  * input parameters
2299:Core/Src/deca_device.c ****  *
2300:Core/Src/deca_device.c ****  * output parameters
2301:Core/Src/deca_device.c ****  *
2302:Core/Src/deca_device.c ****  * returns high 32-bits of TX timestamp
2303:Core/Src/deca_device.c ****  */
2304:Core/Src/deca_device.c **** uint32_t dwt_readtxtimestamphi32(void)
2305:Core/Src/deca_device.c **** {
2306:Core/Src/deca_device.c ****     return dwt_read32bitoffsetreg(TX_TIME_LO_ID, 1); // Offset is 1 to get the 4 upper bytes out of
2307:Core/Src/deca_device.c **** }
2308:Core/Src/deca_device.c **** 
2309:Core/Src/deca_device.c **** /*! -----------------------------------------------------------------------------------------------
2310:Core/Src/deca_device.c ****  * @brief This is used to read the low 32-bits of the TX timestamp (adjusted with the programmed an
2311:Core/Src/deca_device.c ****  *
2312:Core/Src/deca_device.c ****  * input parameters
2313:Core/Src/deca_device.c ****  *
2314:Core/Src/deca_device.c ****  * output parameters
2315:Core/Src/deca_device.c ****  *
2316:Core/Src/deca_device.c ****  * returns low 32-bits of TX timestamp
2317:Core/Src/deca_device.c ****  */
2318:Core/Src/deca_device.c **** uint32_t dwt_readtxtimestamplo32(void)
2319:Core/Src/deca_device.c **** {
2320:Core/Src/deca_device.c ****     return dwt_read32bitreg(TX_TIME_LO_ID); // Read TX TIME as a 32-bit register to get the 4 lower
2321:Core/Src/deca_device.c **** }
2322:Core/Src/deca_device.c **** 
2323:Core/Src/deca_device.c **** /*! -----------------------------------------------------------------------------------------------
2324:Core/Src/deca_device.c **** * @brief This is used to read the PDOA result, it is the phase difference between either the Ipatov
2325:Core/Src/deca_device.c **** *  or the two STS POAs (in PDOA mode 3), depending on the PDOA mode of operation. (POA - Phase Of A
2326:Core/Src/deca_device.c **** *
2327:Core/Src/deca_device.c **** * NOTE: To convert to degrees: float pdoa_deg = ((float)pdoa / (1 << 11)) * 180 / M_PI
2328:Core/Src/deca_device.c **** *
2329:Core/Src/deca_device.c **** * input parameters
2330:Core/Src/deca_device.c **** *
2331:Core/Src/deca_device.c **** * output parameters - the PDOA result (signed in [1:-11] radian units)
ARM GAS  /tmp/cclDsldr.s 			page 59


2332:Core/Src/deca_device.c **** *
2333:Core/Src/deca_device.c **** * no return value
2334:Core/Src/deca_device.c **** */
2335:Core/Src/deca_device.c **** int16_t dwt_readpdoa(void)
2336:Core/Src/deca_device.c **** {
2337:Core/Src/deca_device.c ****     int16_t  pdoa;
2338:Core/Src/deca_device.c **** 
2339:Core/Src/deca_device.c ****     switch (pdw3000local->dblbuffon)    //check if in double buffer mode and if so which buffer hos
2340:Core/Src/deca_device.c ****     {
2341:Core/Src/deca_device.c ****     case DBL_BUFF_ACCESS_BUFFER_1:
2342:Core/Src/deca_device.c ****         //!!! Assumes that Indirect pointer register B was already set. This is done in the dwt_set
2343:Core/Src/deca_device.c ****         pdoa = dwt_read16bitoffsetreg(INDIRECT_POINTER_B_ID, BUF1_PDOA-BUF1_RX_FINFO+2) & (CIA_TDOA
2344:Core/Src/deca_device.c ****         break;
2345:Core/Src/deca_device.c ****     case DBL_BUFF_ACCESS_BUFFER_0:
2346:Core/Src/deca_device.c ****         pdoa = dwt_read16bitoffsetreg(BUF0_PDOA, 2) & (CIA_TDOA_1_PDOA_PDOA_BIT_MASK>>16);
2347:Core/Src/deca_device.c ****         break;
2348:Core/Src/deca_device.c ****     default:
2349:Core/Src/deca_device.c ****         pdoa = dwt_read16bitoffsetreg(CIA_TDOA_1_PDOA_ID, 2) & (CIA_TDOA_1_PDOA_PDOA_BIT_MASK>>16);
2350:Core/Src/deca_device.c ****         break;
2351:Core/Src/deca_device.c ****     }
2352:Core/Src/deca_device.c **** 
2353:Core/Src/deca_device.c ****     if (pdoa & B12_SIGN_EXTEND_TEST) pdoa |= B12_SIGN_EXTEND_MASK; //sign extend
2354:Core/Src/deca_device.c ****     return pdoa;
2355:Core/Src/deca_device.c **** }
2356:Core/Src/deca_device.c **** 
2357:Core/Src/deca_device.c **** /*! -----------------------------------------------------------------------------------------------
2358:Core/Src/deca_device.c ****  * @brief This function is used to read the TDOA (Time Difference On Arrival). The TDOA value that 
2359:Core/Src/deca_device.c ****  * register is 41-bits in length. However, 6 bytes (or 48 bits) are read from the register. The rem
2360:Core/Src/deca_device.c ****  * the 'top' of the 6 bytes that are not part of the TDOA value should be set to zero and should no
2361:Core/Src/deca_device.c ****  * rest of the 41-bit value. However, there is no harm in masking the returned value.
2362:Core/Src/deca_device.c ****  *
2363:Core/Src/deca_device.c ****  * input parameters
2364:Core/Src/deca_device.c ****  *
2365:Core/Src/deca_device.c ****  * output parameters
2366:Core/Src/deca_device.c ****  * @param tdoa: time difference on arrival - buffer of 6 bytes that will be filled with TDOA value 
2367:Core/Src/deca_device.c ****  *
2368:Core/Src/deca_device.c ****  * no return value
2369:Core/Src/deca_device.c ****  */
2370:Core/Src/deca_device.c **** void dwt_readtdoa(uint8_t * tdoa)
2371:Core/Src/deca_device.c **** {
2372:Core/Src/deca_device.c ****     // timestamp difference of the 2 cipher RX timestamps
2373:Core/Src/deca_device.c ****     dwt_readfromdevice(CIA_TDOA_0_ID, 0, CIA_TDOA_LEN, tdoa);
2374:Core/Src/deca_device.c ****     tdoa[5] &= 0x01; // TDOA value is 41 bits long. You will need to read 6 bytes and mask the high
2375:Core/Src/deca_device.c **** }
2376:Core/Src/deca_device.c **** 
2377:Core/Src/deca_device.c **** /*! -----------------------------------------------------------------------------------------------
2378:Core/Src/deca_device.c ****  * @brief This is used to read the RX timestamp (adjusted time of arrival)
2379:Core/Src/deca_device.c ****  *
2380:Core/Src/deca_device.c ****  * input parameters
2381:Core/Src/deca_device.c ****  * @param timestamp - a pointer to a 5-byte buffer which will store the read RX timestamp time
2382:Core/Src/deca_device.c ****  *
2383:Core/Src/deca_device.c ****  * output parameters - the timestamp buffer will contain the value after the function call
2384:Core/Src/deca_device.c ****  *
2385:Core/Src/deca_device.c ****  * no return value
2386:Core/Src/deca_device.c ****  */
2387:Core/Src/deca_device.c **** void dwt_readrxtimestamp(uint8_t * timestamp)
2388:Core/Src/deca_device.c **** {
ARM GAS  /tmp/cclDsldr.s 			page 60


2389:Core/Src/deca_device.c ****     switch (pdw3000local->dblbuffon)    //check if in double buffer mode and if so which buffer hos
2390:Core/Src/deca_device.c ****     {
2391:Core/Src/deca_device.c ****     case DBL_BUFF_ACCESS_BUFFER_1:
2392:Core/Src/deca_device.c ****         //!!! Assumes that Indirect pointer register B was already set. This is done in the dwt_set
2393:Core/Src/deca_device.c ****         dwt_readfromdevice(INDIRECT_POINTER_B_ID, BUF1_RX_TIME -BUF1_RX_FINFO, RX_TIME_RX_STAMP_LEN
2394:Core/Src/deca_device.c ****         break;
2395:Core/Src/deca_device.c ****     case DBL_BUFF_ACCESS_BUFFER_0:
2396:Core/Src/deca_device.c ****         dwt_readfromdevice(BUF0_RX_TIME, 0, RX_TIME_RX_STAMP_LEN, timestamp);
2397:Core/Src/deca_device.c ****         break;
2398:Core/Src/deca_device.c ****     default:
2399:Core/Src/deca_device.c ****         dwt_readfromdevice(RX_TIME_0_ID, 0, RX_TIME_RX_STAMP_LEN, timestamp); // Get the adjusted t
2400:Core/Src/deca_device.c ****         break;
2401:Core/Src/deca_device.c ****     }
2402:Core/Src/deca_device.c **** }
2403:Core/Src/deca_device.c **** 
2404:Core/Src/deca_device.c **** /*! -----------------------------------------------------------------------------------------------
2405:Core/Src/deca_device.c ****  * @brief This is used to read the raw RX timestamp (RMARKER time) before any CIA first path analys
2406:Core/Src/deca_device.c ****  *
2407:Core/Src/deca_device.c ****  * input parameters
2408:Core/Src/deca_device.c ****  * @param timestamp - a pointer to a 4-byte buffer which will store the read RX timestamp time
2409:Core/Src/deca_device.c ****  *
2410:Core/Src/deca_device.c ****  * output parameters - the timestamp buffer will contain the value after the function call
2411:Core/Src/deca_device.c ****  *
2412:Core/Src/deca_device.c ****  * no return value
2413:Core/Src/deca_device.c ****  */
2414:Core/Src/deca_device.c **** void dwt_readrxtimestampunadj(uint8_t * timestamp)
2415:Core/Src/deca_device.c **** {
2416:Core/Src/deca_device.c ****     timestamp[0] = 0;
2417:Core/Src/deca_device.c ****     dwt_readfromdevice(RX_TIME_RAW_ID, 0, RX_TIME_RX_STAMP_LEN-1, &timestamp[1]);
2418:Core/Src/deca_device.c **** }
2419:Core/Src/deca_device.c **** 
2420:Core/Src/deca_device.c **** /*! -----------------------------------------------------------------------------------------------
2421:Core/Src/deca_device.c ****  * @brief This is used to read the RX timestamp (adjusted time of arrival) w.r.t. Ipatov CIR
2422:Core/Src/deca_device.c ****  *
2423:Core/Src/deca_device.c ****  * input parameters
2424:Core/Src/deca_device.c ****  * @param timestamp - a pointer to a 5-byte buffer which will store the read RX timestamp time
2425:Core/Src/deca_device.c ****  *
2426:Core/Src/deca_device.c ****  * output parameters - the timestamp buffer will contain the value after the function call
2427:Core/Src/deca_device.c ****  *
2428:Core/Src/deca_device.c ****  * no return value
2429:Core/Src/deca_device.c ****  */
2430:Core/Src/deca_device.c **** void dwt_readrxtimestamp_ipatov(uint8_t * timestamp)
2431:Core/Src/deca_device.c **** {
2432:Core/Src/deca_device.c ****     switch (pdw3000local->dblbuffon)    //check if in double buffer mode and if so which buffer hos
2433:Core/Src/deca_device.c ****     {
2434:Core/Src/deca_device.c ****     case DBL_BUFF_ACCESS_BUFFER_1:
2435:Core/Src/deca_device.c ****         //!!! Assumes that Indirect pointer register B was already set. This is done in the dwt_set
2436:Core/Src/deca_device.c ****         dwt_readfromdevice(INDIRECT_POINTER_B_ID, BUF1_IP_TS - BUF1_RX_FINFO, CIA_I_RX_TIME_LEN, ti
2437:Core/Src/deca_device.c ****         break;
2438:Core/Src/deca_device.c ****     case DBL_BUFF_ACCESS_BUFFER_0:
2439:Core/Src/deca_device.c ****         dwt_readfromdevice(BUF0_IP_TS, 0, CIA_I_RX_TIME_LEN, timestamp);
2440:Core/Src/deca_device.c ****         break;
2441:Core/Src/deca_device.c ****     default:
2442:Core/Src/deca_device.c ****         dwt_readfromdevice(IP_TOA_LO_ID, 0, CIA_I_RX_TIME_LEN, timestamp); // Get the adjusted time
2443:Core/Src/deca_device.c ****         break;
2444:Core/Src/deca_device.c ****     }
2445:Core/Src/deca_device.c **** }
ARM GAS  /tmp/cclDsldr.s 			page 61


2446:Core/Src/deca_device.c **** 
2447:Core/Src/deca_device.c **** /*! -----------------------------------------------------------------------------------------------
2448:Core/Src/deca_device.c ****  * @brief This is used to read the RX timestamp (adjusted time of arrival) w.r.t. STS CIR
2449:Core/Src/deca_device.c ****  *
2450:Core/Src/deca_device.c ****  * input parameters
2451:Core/Src/deca_device.c ****  * @param timestamp - a pointer to a 5-byte buffer which will store the read RX timestamp time
2452:Core/Src/deca_device.c ****  *
2453:Core/Src/deca_device.c ****  * output parameters - the timestamp buffer will contain the value after the function call
2454:Core/Src/deca_device.c ****  *
2455:Core/Src/deca_device.c ****  * no return value
2456:Core/Src/deca_device.c ****  */
2457:Core/Src/deca_device.c **** void dwt_readrxtimestamp_sts(uint8_t * timestamp)
2458:Core/Src/deca_device.c **** {
2459:Core/Src/deca_device.c ****     switch (pdw3000local->dblbuffon)    //check if in double buffer mode and if so which buffer hos
2460:Core/Src/deca_device.c ****     {
2461:Core/Src/deca_device.c ****     case DBL_BUFF_ACCESS_BUFFER_1:
2462:Core/Src/deca_device.c ****         //!!! Assumes that Indirect pointer register B was already set. This is done in the dwt_set
2463:Core/Src/deca_device.c ****         dwt_readfromdevice(INDIRECT_POINTER_B_ID, BUF1_STS_TS - BUF1_RX_FINFO, CIA_C_RX_TIME_LEN, t
2464:Core/Src/deca_device.c ****         break;
2465:Core/Src/deca_device.c ****     case DBL_BUFF_ACCESS_BUFFER_0:
2466:Core/Src/deca_device.c ****         dwt_readfromdevice(BUF0_STS_TS, 0, CIA_C_RX_TIME_LEN, timestamp);
2467:Core/Src/deca_device.c ****         break;
2468:Core/Src/deca_device.c ****     default:
2469:Core/Src/deca_device.c ****         dwt_readfromdevice(STS_TOA_LO_ID, 0, CIA_C_RX_TIME_LEN, timestamp); // Get the adjusted tim
2470:Core/Src/deca_device.c ****         break;
2471:Core/Src/deca_device.c ****     }
2472:Core/Src/deca_device.c **** }
2473:Core/Src/deca_device.c **** 
2474:Core/Src/deca_device.c **** /*! -----------------------------------------------------------------------------------------------
2475:Core/Src/deca_device.c ****  * @brief This is used to read the high 32-bits of the RX timestamp (adjusted with the programmed a
2476:Core/Src/deca_device.c ****  *
2477:Core/Src/deca_device.c ****  * input parameters
2478:Core/Src/deca_device.c ****  *
2479:Core/Src/deca_device.c ****  * output parameters
2480:Core/Src/deca_device.c ****  *
2481:Core/Src/deca_device.c ****  * returns high 32-bits of RX timestamp
2482:Core/Src/deca_device.c ****  */
2483:Core/Src/deca_device.c **** uint32_t dwt_readrxtimestamphi32(void)
2484:Core/Src/deca_device.c **** {
2485:Core/Src/deca_device.c ****     return dwt_read32bitoffsetreg(RX_TIME_0_ID, 1); // Offset is 1 to get the 4 upper bytes out of 
2486:Core/Src/deca_device.c **** }
2487:Core/Src/deca_device.c **** 
2488:Core/Src/deca_device.c **** /*! -----------------------------------------------------------------------------------------------
2489:Core/Src/deca_device.c ****  * @brief This is used to read the low 32-bits of the RX timestamp (adjusted with the programmed an
2490:Core/Src/deca_device.c ****  *
2491:Core/Src/deca_device.c ****  * input parameters
2492:Core/Src/deca_device.c ****  *
2493:Core/Src/deca_device.c ****  * output parameters
2494:Core/Src/deca_device.c ****  *
2495:Core/Src/deca_device.c ****  * returns low 32-bits of RX timestamp
2496:Core/Src/deca_device.c ****  */
2497:Core/Src/deca_device.c **** uint32_t dwt_readrxtimestamplo32(void)
2498:Core/Src/deca_device.c **** {
2499:Core/Src/deca_device.c ****     return dwt_read32bitreg(RX_TIME_0_ID); // Read RX TIME as a 32-bit register to get the 4 lower 
2500:Core/Src/deca_device.c **** }
2501:Core/Src/deca_device.c **** 
2502:Core/Src/deca_device.c **** /*! -----------------------------------------------------------------------------------------------
ARM GAS  /tmp/cclDsldr.s 			page 62


2503:Core/Src/deca_device.c ****  * @brief This is used to read the high 32-bits of the system time
2504:Core/Src/deca_device.c ****  *
2505:Core/Src/deca_device.c ****  * input parameters
2506:Core/Src/deca_device.c ****  *
2507:Core/Src/deca_device.c ****  * output parameters
2508:Core/Src/deca_device.c ****  *
2509:Core/Src/deca_device.c ****  * returns high 32-bits of system time timestamp
2510:Core/Src/deca_device.c ****  */
2511:Core/Src/deca_device.c **** uint32_t dwt_readsystimestamphi32(void)
2512:Core/Src/deca_device.c **** {
2513:Core/Src/deca_device.c ****     return dwt_read32bitreg(SYS_TIME_ID);
2514:Core/Src/deca_device.c **** }
2515:Core/Src/deca_device.c **** 
2516:Core/Src/deca_device.c **** /*! -----------------------------------------------------------------------------------------------
2517:Core/Src/deca_device.c ****  * @brief This is used to read the system time
2518:Core/Src/deca_device.c ****  *
2519:Core/Src/deca_device.c ****  * input parameters
2520:Core/Src/deca_device.c ****  * @param timestamp - a pointer to a 4-byte buffer which will store the read system time
2521:Core/Src/deca_device.c ****  *
2522:Core/Src/deca_device.c ****  * output parameters
2523:Core/Src/deca_device.c ****  * @param timestamp - the timestamp buffer will contain the value after the function call
2524:Core/Src/deca_device.c ****  *
2525:Core/Src/deca_device.c ****  * no return value
2526:Core/Src/deca_device.c ****  */
2527:Core/Src/deca_device.c **** void dwt_readsystime(uint8_t * timestamp)
2528:Core/Src/deca_device.c **** {
2529:Core/Src/deca_device.c ****     dwt_readfromdevice(SYS_TIME_ID, 0, SYS_TIME_LEN, timestamp);
2530:Core/Src/deca_device.c **** }
2531:Core/Src/deca_device.c **** 
2532:Core/Src/deca_device.c **** /*! -----------------------------------------------------------------------------------------------
2533:Core/Src/deca_device.c ****  * @brief This is used to enable the frame filtering - (the default option is to
2534:Core/Src/deca_device.c ****  * accept any data and ACK frames with correct destination address)
2535:Core/Src/deca_device.c ****  *
2536:Core/Src/deca_device.c ****  * input parameters
2537:Core/Src/deca_device.c ****  * @param enabletype (bitmask) - enables/disables the frame filtering and configures 802.15.4 type
2538:Core/Src/deca_device.c ****  *       DWT_FF_ENABLE_802_15_4      0x2             // use 802.15.4 filtering rules
2539:Core/Src/deca_device.c ****  *       DWT_FF_DISABLE              0x0             // disable FF
2540:Core/Src/deca_device.c ****  * @param filtermode (bitmask) - configures the frame filtering options according to
2541:Core/Src/deca_device.c ****  *       DWT_FF_BEACON_EN            0x001           // beacon frames allowed
2542:Core/Src/deca_device.c ****  *       DWT_FF_DATA_EN              0x002           // data frames allowed
2543:Core/Src/deca_device.c ****  *       DWT_FF_ACK_EN               0x004           // ack frames allowed
2544:Core/Src/deca_device.c ****  *       DWT_FF_MAC_EN               0x008           // mac control frames allowed
2545:Core/Src/deca_device.c ****  *       DWT_FF_RSVD_EN              0x010           // reserved frame types allowed
2546:Core/Src/deca_device.c ****  *       DWT_FF_MULTI_EN             0x020           // multipurpose frames allowed
2547:Core/Src/deca_device.c ****  *       DWT_FF_FRAG_EN              0x040           // fragmented frame types allowed
2548:Core/Src/deca_device.c ****  *       DWT_FF_EXTEND_EN            0x080           // extended frame types allowed
2549:Core/Src/deca_device.c ****  *       DWT_FF_COORD_EN             0x100           // behave as coordinator (can receive frames w
2550:Core/Src/deca_device.c ****  *       DWT_FF_IMPBRCAST_EN         0x200           // allow MAC implicit broadcast
2551:Core/Src/deca_device.c ****  *       DWT_FF_LE0_PEND             0x400           // Data pending for device at LE0 address. see
2552:Core/Src/deca_device.c ****  *       DWT_FF_LE1_PEND             0x800           // Data pending for device at LE1 address. see
2553:Core/Src/deca_device.c ****  *       DWT_FF_LE2_PEND             0x1000           // Data pending for device at LE2 address. se
2554:Core/Src/deca_device.c ****  *       DWT_FF_LE3_PEND             0x2000          // Data pending for device at LE3 address. see
2555:Core/Src/deca_device.c ****  *       DWT_SSADRAPE                0x4000          //Short Source Address Data Request ACK with P
2556:Core/Src/deca_device.c ****  *       DWT_LSADRAPE                0x8000          //Long Source Address Data Request ACK with PE
2557:Core/Src/deca_device.c ****  * output parameters
2558:Core/Src/deca_device.c ****  *
2559:Core/Src/deca_device.c ****  * no return value
ARM GAS  /tmp/cclDsldr.s 			page 63


2560:Core/Src/deca_device.c ****  */
2561:Core/Src/deca_device.c **** void dwt_configureframefilter(uint16_t enabletype, uint16_t filtermode)
2562:Core/Src/deca_device.c **** {
2563:Core/Src/deca_device.c ****     if(enabletype == DWT_FF_ENABLE_802_15_4)
2564:Core/Src/deca_device.c ****     {
2565:Core/Src/deca_device.c ****         dwt_or8bitoffsetreg(SYS_CFG_ID, 0, (uint8_t)(SYS_CFG_FFEN_BIT_MASK));
2566:Core/Src/deca_device.c ****         dwt_write16bitoffsetreg(ADR_FILT_CFG_ID, 0, filtermode);
2567:Core/Src/deca_device.c ****     }
2568:Core/Src/deca_device.c ****     else
2569:Core/Src/deca_device.c ****     {
2570:Core/Src/deca_device.c ****         // Disable frame filter
2571:Core/Src/deca_device.c ****         dwt_and8bitoffsetreg(SYS_CFG_ID, 0, (uint8_t)(~(SYS_CFG_FFEN_BIT_MASK)));
2572:Core/Src/deca_device.c ****         // Clear the configuration
2573:Core/Src/deca_device.c ****         dwt_write16bitoffsetreg(ADR_FILT_CFG_ID, 0, 0x0);
2574:Core/Src/deca_device.c ****     }
2575:Core/Src/deca_device.c **** }
2576:Core/Src/deca_device.c **** 
2577:Core/Src/deca_device.c **** /*! -----------------------------------------------------------------------------------------------
2578:Core/Src/deca_device.c ****  * @brief This is used to set the PAN ID
2579:Core/Src/deca_device.c ****  *
2580:Core/Src/deca_device.c ****  * input parameters
2581:Core/Src/deca_device.c ****  * @param panID - this is the PAN ID
2582:Core/Src/deca_device.c ****  *
2583:Core/Src/deca_device.c ****  * output parameters
2584:Core/Src/deca_device.c ****  *
2585:Core/Src/deca_device.c ****  * no return value
2586:Core/Src/deca_device.c ****  */
2587:Core/Src/deca_device.c **** void dwt_setpanid(uint16_t panID)
2588:Core/Src/deca_device.c **** {
2589:Core/Src/deca_device.c ****     // PAN ID is high 16 bits of register
2590:Core/Src/deca_device.c ****     dwt_write16bitoffsetreg(PANADR_ID, PANADR_PAN_ID_BYTE_OFFSET, panID);
2591:Core/Src/deca_device.c **** }
2592:Core/Src/deca_device.c **** 
2593:Core/Src/deca_device.c **** /*! -----------------------------------------------------------------------------------------------
2594:Core/Src/deca_device.c ****  * @brief This is used to set 16-bit (short) address
2595:Core/Src/deca_device.c ****  *
2596:Core/Src/deca_device.c ****  * input parameters
2597:Core/Src/deca_device.c ****  * @param shortAddress - this sets the 16 bit short address
2598:Core/Src/deca_device.c ****  *
2599:Core/Src/deca_device.c ****  * output parameters
2600:Core/Src/deca_device.c ****  *
2601:Core/Src/deca_device.c ****  * no return value
2602:Core/Src/deca_device.c ****  */
2603:Core/Src/deca_device.c **** void dwt_setaddress16(uint16_t shortAddress)
2604:Core/Src/deca_device.c **** {
2605:Core/Src/deca_device.c ****     // Short address into low 16 bits
2606:Core/Src/deca_device.c ****     dwt_write16bitoffsetreg(PANADR_ID, PANADR_SHORTADDR_BIT_OFFSET, shortAddress);
2607:Core/Src/deca_device.c **** }
2608:Core/Src/deca_device.c **** 
2609:Core/Src/deca_device.c **** /*! -----------------------------------------------------------------------------------------------
2610:Core/Src/deca_device.c ****  * @brief This is used to set the EUI 64-bit (long) address
2611:Core/Src/deca_device.c ****  *
2612:Core/Src/deca_device.c ****  * input parameters
2613:Core/Src/deca_device.c ****  * @param eui64 - this is the pointer to a buffer that contains the 64bit address
2614:Core/Src/deca_device.c ****  *
2615:Core/Src/deca_device.c ****  * output parameters
2616:Core/Src/deca_device.c ****  *
ARM GAS  /tmp/cclDsldr.s 			page 64


2617:Core/Src/deca_device.c ****  * no return value
2618:Core/Src/deca_device.c ****  */
2619:Core/Src/deca_device.c **** void dwt_seteui(uint8_t *eui64)
2620:Core/Src/deca_device.c **** {
2621:Core/Src/deca_device.c ****     dwt_writetodevice(EUI_64_LO_ID, 0, 0x8, eui64);
2622:Core/Src/deca_device.c **** }
2623:Core/Src/deca_device.c **** 
2624:Core/Src/deca_device.c **** /*! -----------------------------------------------------------------------------------------------
2625:Core/Src/deca_device.c ****  * @brief This is used to get the EUI 64-bit from the DW3000
2626:Core/Src/deca_device.c ****  *
2627:Core/Src/deca_device.c ****  * input parameters
2628:Core/Src/deca_device.c ****  * @param eui64 - this is the pointer to a buffer that will contain the read 64-bit EUI value
2629:Core/Src/deca_device.c ****  *
2630:Core/Src/deca_device.c ****  * output parameters
2631:Core/Src/deca_device.c ****  *
2632:Core/Src/deca_device.c ****  * no return value
2633:Core/Src/deca_device.c ****  */
2634:Core/Src/deca_device.c **** void dwt_geteui(uint8_t *eui64)
2635:Core/Src/deca_device.c **** {
2636:Core/Src/deca_device.c ****     dwt_readfromdevice(EUI_64_LO_ID, 0, 0x8, eui64);
2637:Core/Src/deca_device.c **** }
2638:Core/Src/deca_device.c **** 
2639:Core/Src/deca_device.c **** /*! -----------------------------------------------------------------------------------------------
2640:Core/Src/deca_device.c **** * @brief This is used to read from AON memory
2641:Core/Src/deca_device.c **** *
2642:Core/Src/deca_device.c **** * input parameters
2643:Core/Src/deca_device.c **** * @param aon_address - this is the address of the memory location to read
2644:Core/Src/deca_device.c **** *
2645:Core/Src/deca_device.c **** * output parameters - None
2646:Core/Src/deca_device.c **** *
2647:Core/Src/deca_device.c **** * returns 8-bits read from given AON memory address
2648:Core/Src/deca_device.c **** */
2649:Core/Src/deca_device.c **** uint8_t dwt_aon_read(uint16_t aon_address)
2650:Core/Src/deca_device.c **** {
2651:Core/Src/deca_device.c ****     dwt_write16bitoffsetreg(AON_ADDR_ID, 0x0, aon_address);// Set short AON address for read
2652:Core/Src/deca_device.c ****     dwt_write8bitoffsetreg(AON_CTRL_ID, 0x0, (AON_CTRL_DCA_ENAB_BIT_MASK | AON_CTRL_DCA_READ_EN_BIT
2653:Core/Src/deca_device.c ****     dwt_write8bitoffsetreg(AON_CTRL_ID, 0x0, 0x0);// Clear all enabled bits
2654:Core/Src/deca_device.c ****     return dwt_read8bitoffsetreg(AON_RDATA_ID, 0x0);//Return the data that was read
2655:Core/Src/deca_device.c **** }
2656:Core/Src/deca_device.c **** 
2657:Core/Src/deca_device.c **** /*! -----------------------------------------------------------------------------------------------
2658:Core/Src/deca_device.c **** * @brief This is used to write to AON memory
2659:Core/Src/deca_device.c **** *
2660:Core/Src/deca_device.c **** * @param aon_address - this is the address of the memory location to write
2661:Core/Src/deca_device.c **** * @param aon_write_data - this is the data to write
2662:Core/Src/deca_device.c **** *
2663:Core/Src/deca_device.c **** * output parameters - None
2664:Core/Src/deca_device.c **** *
2665:Core/Src/deca_device.c **** * no return value
2666:Core/Src/deca_device.c **** *
2667:Core/Src/deca_device.c **** */
2668:Core/Src/deca_device.c **** void dwt_aon_write(uint16_t aon_address, uint8_t aon_write_data)
2669:Core/Src/deca_device.c **** {
2670:Core/Src/deca_device.c ****     uint8_t temp = 0;
2671:Core/Src/deca_device.c ****     if (aon_address >= 0x100) temp = AON_CTRL_DCA_WRITE_HI_EN_BIT_MASK;
2672:Core/Src/deca_device.c ****     dwt_write16bitoffsetreg(AON_ADDR_ID, 0x0, aon_address); // Set AON address for write
2673:Core/Src/deca_device.c ****     dwt_write8bitoffsetreg(AON_WDATA_ID, 0x0, aon_write_data); // Set write data
ARM GAS  /tmp/cclDsldr.s 			page 65


2674:Core/Src/deca_device.c ****     dwt_write8bitoffsetreg(AON_CTRL_ID,0x0,(temp | AON_CTRL_DCA_ENAB_BIT_MASK | AON_CTRL_DCA_WRITE_
2675:Core/Src/deca_device.c ****     dwt_write8bitoffsetreg(AON_CTRL_ID, 0x0, 0x0); // Clear all enabled bits
2676:Core/Src/deca_device.c **** }
2677:Core/Src/deca_device.c **** 
2678:Core/Src/deca_device.c **** /*! -----------------------------------------------------------------------------------------------
2679:Core/Src/deca_device.c ****  * @brief This is used to read the OTP data from given address into provided array
2680:Core/Src/deca_device.c ****  *
2681:Core/Src/deca_device.c ****  * input parameters
2682:Core/Src/deca_device.c ****  * @param address - this is the OTP address to read from
2683:Core/Src/deca_device.c ****  * @param array - this is the pointer to the array into which to read the data
2684:Core/Src/deca_device.c ****  * @param length - this is the number of 32 bit words to read (array needs to be at least this leng
2685:Core/Src/deca_device.c ****  *
2686:Core/Src/deca_device.c ****  * output parameters
2687:Core/Src/deca_device.c ****  *
2688:Core/Src/deca_device.c ****  * no return value
2689:Core/Src/deca_device.c ****  */
2690:Core/Src/deca_device.c **** void dwt_otpread(uint16_t address, uint32_t *array, uint8_t length)
2691:Core/Src/deca_device.c **** {
2692:Core/Src/deca_device.c ****     int i;
2693:Core/Src/deca_device.c **** 
2694:Core/Src/deca_device.c ****     for(i=0; i<length; i++)
2695:Core/Src/deca_device.c ****     {
2696:Core/Src/deca_device.c ****         array[i] = _dwt_otpread(address + i);
2697:Core/Src/deca_device.c ****     }
2698:Core/Src/deca_device.c **** 
2699:Core/Src/deca_device.c ****     return ;
2700:Core/Src/deca_device.c **** }
2701:Core/Src/deca_device.c **** 
2702:Core/Src/deca_device.c **** /*! -----------------------------------------------------------------------------------------------
2703:Core/Src/deca_device.c ****  * @brief function to read the OTP memory. 
2704:Core/Src/deca_device.c ****  *
2705:Core/Src/deca_device.c ****  * input parameters
2706:Core/Src/deca_device.c ****  * @param address - address to read at
2707:Core/Src/deca_device.c ****  *
2708:Core/Src/deca_device.c ****  * output parameters
2709:Core/Src/deca_device.c ****  *
2710:Core/Src/deca_device.c ****  * returns the 32bit of read data
2711:Core/Src/deca_device.c ****  */
2712:Core/Src/deca_device.c **** uint32_t _dwt_otpread(uint16_t address)
2713:Core/Src/deca_device.c **** {
2714:Core/Src/deca_device.c ****     uint32_t ret_data = 0;
2715:Core/Src/deca_device.c **** 
2716:Core/Src/deca_device.c ****     // Set manual access mode
2717:Core/Src/deca_device.c ****     dwt_write16bitoffsetreg(OTP_CFG_ID, 0, 0x0001);
2718:Core/Src/deca_device.c ****     // set the address
2719:Core/Src/deca_device.c ****     dwt_write16bitoffsetreg(OTP_ADDR_ID, 0, address);
2720:Core/Src/deca_device.c ****     // Assert the read strobe
2721:Core/Src/deca_device.c ****     dwt_write16bitoffsetreg(OTP_CFG_ID, 0, 0x0002);
2722:Core/Src/deca_device.c ****     // attempt a read from OTP address
2723:Core/Src/deca_device.c ****     ret_data = dwt_read32bitoffsetreg(OTP_RDATA_ID, 0);
2724:Core/Src/deca_device.c **** 
2725:Core/Src/deca_device.c ****     // Return the 32bit of read data
2726:Core/Src/deca_device.c ****     return ret_data;
2727:Core/Src/deca_device.c **** }
2728:Core/Src/deca_device.c **** 
2729:Core/Src/deca_device.c **** /*! -----------------------------------------------------------------------------------------------
2730:Core/Src/deca_device.c ****  * @brief For each value to send to OTP bloc, following two register writes are required as shown b
ARM GAS  /tmp/cclDsldr.s 			page 66


2731:Core/Src/deca_device.c ****  *
2732:Core/Src/deca_device.c ****  * @param val: 16-bit value to write to the OTP block
2733:Core/Src/deca_device.c ****  */
2734:Core/Src/deca_device.c **** void  __dwt_otp_write_wdata_id_reg(int16_t val) 
2735:Core/Src/deca_device.c **** {
2736:Core/Src/deca_device.c ****     /* Pull the CS high to enable user interface for programming */
2737:Core/Src/deca_device.c **** 	/* 'val' is ignored in this instance by the OTP block */
2738:Core/Src/deca_device.c **** 	dwt_write16bitoffsetreg(OTP_WDATA_ID, 0, 0x0200 | val);
2739:Core/Src/deca_device.c **** 	/* Send the relevant command to the OTP block */
2740:Core/Src/deca_device.c ****     dwt_write16bitoffsetreg(OTP_WDATA_ID, 0, 0x0000 | val);
2741:Core/Src/deca_device.c **** }
2742:Core/Src/deca_device.c **** 
2743:Core/Src/deca_device.c **** /*! -----------------------------------------------------------------------------------------------
2744:Core/Src/deca_device.c ****  * @brief function to program the OTP memory. 
2745:Core/Src/deca_device.c ****  * Note the address is only 11 bits long.
2746:Core/Src/deca_device.c ****  *
2747:Core/Src/deca_device.c ****  * input parameters
2748:Core/Src/deca_device.c ****  * @param data - data to write to given address
2749:Core/Src/deca_device.c ****  * @param address - address to write to
2750:Core/Src/deca_device.c ****  *
2751:Core/Src/deca_device.c ****  * output parameters
2752:Core/Src/deca_device.c ****  *
2753:Core/Src/deca_device.c ****  * returns None
2754:Core/Src/deca_device.c ****  */
2755:Core/Src/deca_device.c **** void _dwt_otpprogword32(uint32_t data, uint16_t address)
2756:Core/Src/deca_device.c **** {
2757:Core/Src/deca_device.c ****     //uint32_t rd_buf;
2758:Core/Src/deca_device.c ****     uint16_t wr_buf[4];
2759:Core/Src/deca_device.c ****     //uint8_t otp_done;
2760:Core/Src/deca_device.c **** 
2761:Core/Src/deca_device.c ****     // Read current register value
2762:Core/Src/deca_device.c ****     uint32_t ldo_tune = dwt_read32bitoffsetreg(LDO_TUNE_HI_ID, 0);
2763:Core/Src/deca_device.c ****     // Set VDDHV_TX LDO to max
2764:Core/Src/deca_device.c ****     dwt_or32bitoffsetreg(LDO_TUNE_HI_ID, 0, LDO_TUNE_HI_LDO_HVAUX_TUNE_BIT_MASK);
2765:Core/Src/deca_device.c ****     
2766:Core/Src/deca_device.c ****     // configure mode for programming
2767:Core/Src/deca_device.c ****     dwt_write16bitoffsetreg(OTP_CFG_ID, 0, 0x018);
2768:Core/Src/deca_device.c **** 
2769:Core/Src/deca_device.c ****     // Select fast programming
2770:Core/Src/deca_device.c ****     __dwt_otp_write_wdata_id_reg(0x0025);
2771:Core/Src/deca_device.c **** 
2772:Core/Src/deca_device.c ****     // Apply instruction to write the address
2773:Core/Src/deca_device.c ****     __dwt_otp_write_wdata_id_reg(0x0002);
2774:Core/Src/deca_device.c ****     __dwt_otp_write_wdata_id_reg(0x01fc);
2775:Core/Src/deca_device.c **** 
2776:Core/Src/deca_device.c ****     // Now sending the OTP address data (2 bytes)
2777:Core/Src/deca_device.c ****     wr_buf[0] = 0x0100 | (address & 0xff);
2778:Core/Src/deca_device.c ****     __dwt_otp_write_wdata_id_reg(wr_buf[0]);
2779:Core/Src/deca_device.c **** 
2780:Core/Src/deca_device.c ****     // Write data (upper byte of address)
2781:Core/Src/deca_device.c ****     __dwt_otp_write_wdata_id_reg(0x0100);
2782:Core/Src/deca_device.c **** 
2783:Core/Src/deca_device.c ****     // Clean up
2784:Core/Src/deca_device.c ****     __dwt_otp_write_wdata_id_reg(0x0000);
2785:Core/Src/deca_device.c **** 
2786:Core/Src/deca_device.c **** 
2787:Core/Src/deca_device.c ****     // Apply instruction  to write data
ARM GAS  /tmp/cclDsldr.s 			page 67


2788:Core/Src/deca_device.c ****     __dwt_otp_write_wdata_id_reg(0x0002);
2789:Core/Src/deca_device.c ****     __dwt_otp_write_wdata_id_reg(0x01c0);
2790:Core/Src/deca_device.c **** 
2791:Core/Src/deca_device.c ****     // Write the data
2792:Core/Src/deca_device.c ****     wr_buf[0] = 0x100 | ((data >> 24) & 0xff);
2793:Core/Src/deca_device.c ****     wr_buf[1] = 0x100 | ((data >> 16) & 0xff);
2794:Core/Src/deca_device.c ****     wr_buf[2] = 0x100 | ((data >> 8) & 0xff);
2795:Core/Src/deca_device.c ****     wr_buf[3] = 0x100 | (data & 0xff);
2796:Core/Src/deca_device.c ****     __dwt_otp_write_wdata_id_reg(wr_buf[3]);
2797:Core/Src/deca_device.c ****     __dwt_otp_write_wdata_id_reg(wr_buf[2]);
2798:Core/Src/deca_device.c ****     __dwt_otp_write_wdata_id_reg(wr_buf[1]);
2799:Core/Src/deca_device.c ****     __dwt_otp_write_wdata_id_reg(wr_buf[0]);
2800:Core/Src/deca_device.c **** 
2801:Core/Src/deca_device.c ****     // Clean up
2802:Core/Src/deca_device.c ****     __dwt_otp_write_wdata_id_reg(0x0000);
2803:Core/Src/deca_device.c **** 
2804:Core/Src/deca_device.c ****     //Enter prog mode
2805:Core/Src/deca_device.c ****     __dwt_otp_write_wdata_id_reg(0x003a);
2806:Core/Src/deca_device.c ****     __dwt_otp_write_wdata_id_reg(0x01ff);
2807:Core/Src/deca_device.c ****     __dwt_otp_write_wdata_id_reg(0x010a);
2808:Core/Src/deca_device.c ****     // Clean up
2809:Core/Src/deca_device.c ****     __dwt_otp_write_wdata_id_reg(0x0000);
2810:Core/Src/deca_device.c **** 
2811:Core/Src/deca_device.c ****     /* 
2812:Core/Src/deca_device.c **** 	// Enable state/status output
2813:Core/Src/deca_device.c ****     __dwt_otp_write_wdata_id_reg(0x003a);
2814:Core/Src/deca_device.c ****     __dwt_otp_write_wdata_id_reg(0x01bf);
2815:Core/Src/deca_device.c ****     __dwt_otp_write_wdata_id_reg(0x0100);
2816:Core/Src/deca_device.c ****     */
2817:Core/Src/deca_device.c **** 
2818:Core/Src/deca_device.c ****     //Start prog mode
2819:Core/Src/deca_device.c ****     __dwt_otp_write_wdata_id_reg(0x003a);
2820:Core/Src/deca_device.c **** 	__dwt_otp_write_wdata_id_reg(0x0101);
2821:Core/Src/deca_device.c ****     dwt_write16bitoffsetreg(OTP_WDATA_ID, 0, 0x0002);   // Different to previous one
2822:Core/Src/deca_device.c ****     dwt_write16bitoffsetreg(OTP_WDATA_ID, 0, 0x0000);
2823:Core/Src/deca_device.c **** 
2824:Core/Src/deca_device.c ****     /*
2825:Core/Src/deca_device.c ****     read status after programm command.
2826:Core/Src/deca_device.c ****     The for loop will exit once the status indicates programming is complete or if it reaches the m
2827:Core/Src/deca_device.c ****     1000 is more than sufficient for max OTP programming delay and max supported DW3000 SPI rate.
2828:Core/Src/deca_device.c ****     Instead a delay of 2ms (as commented out below) can be used.
2829:Core/Src/deca_device.c ****     Burn time is about 1.76ms
2830:Core/Src/deca_device.c ****     */
2831:Core/Src/deca_device.c **** 
2832:Core/Src/deca_device.c ****     /*uint16_t	i;
2833:Core/Src/deca_device.c **** 
2834:Core/Src/deca_device.c ****     for (i = 0; i < 1000; i++)
2835:Core/Src/deca_device.c ****     {
2836:Core/Src/deca_device.c ****         rd_buf = dwt_read32bitoffsetreg(OTP_STATUS_ID, 0);
2837:Core/Src/deca_device.c **** 
2838:Core/Src/deca_device.c ****         if (!(rd_buf & OTP_STATUS_OTP_PROG_DONE_BIT_MASK))
2839:Core/Src/deca_device.c ****         {
2840:Core/Src/deca_device.c ****             break;
2841:Core/Src/deca_device.c ****         }
2842:Core/Src/deca_device.c ****     }*/
2843:Core/Src/deca_device.c **** 
2844:Core/Src/deca_device.c **** 
ARM GAS  /tmp/cclDsldr.s 			page 68


2845:Core/Src/deca_device.c ****     deca_sleep(2);//Uncomment this command if you don't want to use the loop above. It will take mo
2846:Core/Src/deca_device.c **** 
2847:Core/Src/deca_device.c ****     // Stop prog mode
2848:Core/Src/deca_device.c ****     __dwt_otp_write_wdata_id_reg(0x003a);
2849:Core/Src/deca_device.c ****     __dwt_otp_write_wdata_id_reg(0x0102);
2850:Core/Src/deca_device.c ****     dwt_write16bitoffsetreg(OTP_WDATA_ID, 0, 0x0002);   // Different to previous one
2851:Core/Src/deca_device.c ****     dwt_write16bitoffsetreg(OTP_WDATA_ID, 0, 0x0000);
2852:Core/Src/deca_device.c **** 
2853:Core/Src/deca_device.c ****     // configure mode for reading
2854:Core/Src/deca_device.c ****     dwt_write16bitoffsetreg(OTP_CFG_ID, 0, 0x0000);
2855:Core/Src/deca_device.c ****     
2856:Core/Src/deca_device.c ****     // Restore LDO tune register
2857:Core/Src/deca_device.c ****     dwt_write32bitoffsetreg(LDO_TUNE_HI_ID, 0, ldo_tune);
2858:Core/Src/deca_device.c **** }
2859:Core/Src/deca_device.c **** 
2860:Core/Src/deca_device.c **** /*! -----------------------------------------------------------------------------------------------
2861:Core/Src/deca_device.c ****  * @brief This is used to program 32-bit value into the DW3000 OTP memory.
2862:Core/Src/deca_device.c ****  *
2863:Core/Src/deca_device.c ****  * input parameters
2864:Core/Src/deca_device.c ****  * @param value - this is the 32-bit value to be programmed into OTP
2865:Core/Src/deca_device.c ****  * @param address - this is the 16-bit OTP address into which the 32-bit value is programmed
2866:Core/Src/deca_device.c ****  *
2867:Core/Src/deca_device.c ****  * output parameters
2868:Core/Src/deca_device.c ****  *
2869:Core/Src/deca_device.c ****  * returns DWT_SUCCESS for success, or DWT_ERROR for error
2870:Core/Src/deca_device.c ****  */
2871:Core/Src/deca_device.c **** int dwt_otpwriteandverify(uint32_t value, uint16_t address)
2872:Core/Src/deca_device.c **** {
2873:Core/Src/deca_device.c ****     //program the word
2874:Core/Src/deca_device.c ****     _dwt_otpprogword32(value, address);
2875:Core/Src/deca_device.c **** 
2876:Core/Src/deca_device.c ****     //check it is programmed correctly
2877:Core/Src/deca_device.c ****     if(_dwt_otpread(address) == value)
2878:Core/Src/deca_device.c ****     {
2879:Core/Src/deca_device.c ****         return DWT_SUCCESS;
2880:Core/Src/deca_device.c ****     }
2881:Core/Src/deca_device.c ****     else
2882:Core/Src/deca_device.c ****     {
2883:Core/Src/deca_device.c ****         return DWT_ERROR;
2884:Core/Src/deca_device.c ****     }
2885:Core/Src/deca_device.c **** }
2886:Core/Src/deca_device.c **** 
2887:Core/Src/deca_device.c **** /*! -----------------------------------------------------------------------------------------------
2888:Core/Src/deca_device.c ****  * @brief This function puts the device into deep sleep or sleep. dwt_configuresleep() should be ca
2889:Core/Src/deca_device.c ****  * to configure the sleep and on-wake/wake-up parameters
2890:Core/Src/deca_device.c ****  *
2891:Core/Src/deca_device.c ****  * input parameters
2892:Core/Src/deca_device.c ****  * @param idle_rc - if this is set to DWT_DW_IDLE_RC, the auto INIT2IDLE bit will be cleared prior 
2893:Core/Src/deca_device.c ****  *                  thus after wake-up device will stay in IDLE_RC state
2894:Core/Src/deca_device.c ****  *
2895:Core/Src/deca_device.c ****  * output parameters
2896:Core/Src/deca_device.c ****  *
2897:Core/Src/deca_device.c ****  * no return value
2898:Core/Src/deca_device.c ****  */
2899:Core/Src/deca_device.c **** void dwt_entersleep(int idle_rc)
2900:Core/Src/deca_device.c **** {
2901:Core/Src/deca_device.c ****     //clear auto INIT2IDLE bit if required
ARM GAS  /tmp/cclDsldr.s 			page 69


2902:Core/Src/deca_device.c ****     if(idle_rc == DWT_DW_IDLE_RC)
2903:Core/Src/deca_device.c ****     {
2904:Core/Src/deca_device.c ****         dwt_and8bitoffsetreg(SEQ_CTRL_ID, 0x1, (uint8_t) ~(SEQ_CTRL_AINIT2IDLE_BIT_MASK>>8));
2905:Core/Src/deca_device.c ****     }
2906:Core/Src/deca_device.c **** 
2907:Core/Src/deca_device.c ****     // Copy config to AON - upload the new configuration
2908:Core/Src/deca_device.c ****     dwt_write8bitoffsetreg(AON_CTRL_ID, 0, 0);
2909:Core/Src/deca_device.c ****     dwt_write8bitoffsetreg(AON_CTRL_ID, 0, AON_CTRL_ARRAY_SAVE_BIT_MASK);
2910:Core/Src/deca_device.c **** }
2911:Core/Src/deca_device.c **** 
2912:Core/Src/deca_device.c **** /*! -----------------------------------------------------------------------------------------------
2913:Core/Src/deca_device.c ****  * @brief sets the sleep counter to new value, this function programs the sleep counter top 16-bits
2914:Core/Src/deca_device.c ****  *
2915:Core/Src/deca_device.c ****  * NOTE: this function needs to be run before dwt_configuresleep
2916:Core/Src/deca_device.c ****  *
2917:Core/Src/deca_device.c ****  * input parameters
2918:Core/Src/deca_device.c ****  * @param sleepcnt - this it value of the sleep counter to program
2919:Core/Src/deca_device.c ****  *
2920:Core/Src/deca_device.c ****  * output parameters
2921:Core/Src/deca_device.c ****  *
2922:Core/Src/deca_device.c ****  * no return value
2923:Core/Src/deca_device.c ****  */
2924:Core/Src/deca_device.c **** void dwt_configuresleepcnt(uint16_t sleepcnt)
2925:Core/Src/deca_device.c **** {
2926:Core/Src/deca_device.c **** 
